(lp0
cnumpy.core.multiarray
scalar
p1
(cnumpy
dtype
p2
(S'f4'
p3
I0
I1
tp4
Rp5
(I3
S'<'
p6
NNNI-1
I-1
I0
tp7
bS'{\xa6\xa6;'
p8
tp9
Rp10
ag1
(g5
S'\xbf\x9cb='
p11
tp12
Rp13
ag1
(g5
S'C|%<'
p14
tp15
Rp16
ag1
(g5
S'\xdb\xfb\xe4<'
p17
tp18
Rp19
ag1
(g5
S'\xc8\xf4?;'
p20
tp21
Rp22
ag1
(g5
S'\xf0\x03\x83;'
p23
tp24
Rp25
ag1
(g5
S'\x86z\xc9<'
p26
tp27
Rp28
ag1
(g5
S'!\x10\xa3;'
p29
tp30
Rp31
ag1
(g5
S'\xe2E\xc5;'
p32
tp33
Rp34
ag1
(g5
S'\xc1$\x83;'
p35
tp36
Rp37
ag1
(g5
S'\x0f\x92\x06<'
p38
tp39
Rp40
ag1
(g5
S'\xe6\xcb\x0e='
p41
tp42
Rp43
ag1
(g5
S';[\xc9;'
p44
tp45
Rp46
ag1
(g5
S'\x1bp><'
p47
tp48
Rp49
ag1
(g5
S'i{5;'
p50
tp51
Rp52
ag1
(g5
S'\x0c\x93\x92;'
p53
tp54
Rp55
ag1
(g5
S'\x93\xcf<;'
p56
tp57
Rp58
ag1
(g5
S'\x0b)\xd9<'
p59
tp60
Rp61
ag1
(g5
S'\xcb{\xc6;'
p62
tp63
Rp64
ag1
(g5
S'\x0e\xed\x0c>'
p65
tp66
Rp67
ag1
(g5
S'\x1e\xc6\x8c;'
p68
tp69
Rp70
ag1
(g5
S';\xfc\x19;'
p71
tp72
Rp73
ag1
(g5
S'\x8f\xce\xaa<'
p74
tp75
Rp76
ag1
(g5
S'h\r\x00='
p77
tp78
Rp79
ag1
(g5
S'\xf6\xc1\xa0<'
p80
tp81
Rp82
ag1
(g5
S'\x12\xd2\xa0;'
p83
tp84
Rp85
ag1
(g5
S'\xfa3\x96<'
p86
tp87
Rp88
ag1
(g5
S'\xd5\xbc\xdf<'
p89
tp90
Rp91
ag1
(g5
S'\xcb\x83[;'
p92
tp93
Rp94
ag1
(g5
S'\xfb\x9d\xa3;'
p95
tp96
Rp97
ag1
(g5
S'\x18\x8f\xae;'
p98
tp99
Rp100
ag1
(g5
S'\xce\x8e-<'
p101
tp102
Rp103
ag1
(g5
S'\xcb\x83\xf8<'
p104
tp105
Rp106
ag1
(g5
S'\x9d\x1f\xee<'
p107
tp108
Rp109
ag1
(g5
S'\xea\xd7\xed<'
p110
tp111
Rp112
ag1
(g5
S'\x17#\xab<'
p113
tp114
Rp115
ag1
(g5
S'\x15~\xa1;'
p116
tp117
Rp118
ag1
(g5
S'\xf4V\x1b<'
p119
tp120
Rp121
ag1
(g5
S'\xea\xccj<'
p122
tp123
Rp124
ag1
(g5
S'\xd1\x1d\xc6;'
p125
tp126
Rp127
ag1
(g5
S'\x16\\\xda;'
p128
tp129
Rp130
ag1
(g5
S'\x85\xefM;'
p131
tp132
Rp133
ag1
(g5
S'\n\x98\x90;'
p134
tp135
Rp136
ag1
(g5
S'\xe5\x99-<'
p137
tp138
Rp139
ag1
(g5
S'\x10+d;'
p140
tp141
Rp142
ag1
(g5
S'\xc5r\x06='
p143
tp144
Rp145
ag1
(g5
S'H\xb1\xca;'
p146
tp147
Rp148
ag1
(g5
S'\xac\x87v<'
p149
tp150
Rp151
ag1
(g5
S'\xc5j\xa7;'
p152
tp153
Rp154
ag1
(g5
S'\xf7\xf6 <'
p155
tp156
Rp157
ag1
(g5
S',\xeb\xd0;'
p158
tp159
Rp160
ag1
(g5
S'`m7<'
p161
tp162
Rp163
ag1
(g5
S'(\xab\x00<'
p164
tp165
Rp166
ag1
(g5
S'N\xbdT='
p167
tp168
Rp169
ag1
(g5
S'i3\xc4;'
p170
tp171
Rp172
ag1
(g5
S'\xc0\x11p;'
p173
tp174
Rp175
ag1
(g5
S'\xb0\xe1\x8a;'
p176
tp177
Rp178
ag1
(g5
S'\xbd\xfd*='
p179
tp180
Rp181
ag1
(g5
S'\x1a\xcb\xf5;'
p182
tp183
Rp184
ag1
(g5
S'\x8a*\n<'
p185
tp186
Rp187
ag1
(g5
S'\x9d\x92m<'
p188
tp189
Rp190
ag1
(g5
S'\xa4s\x08<'
p191
tp192
Rp193
ag1
(g5
S'vMb;'
p194
tp195
Rp196
ag1
(g5
S'\xfe\x82\x93<'
p197
tp198
Rp199
ag1
(g5
S'\xe2O\t<'
p200
tp201
Rp202
ag1
(g5
S'|\xa0\xd7;'
p203
tp204
Rp205
ag1
(g5
S'6C\xb4='
p206
tp207
Rp208
ag1
(g5
S'\xa6\xf6\x01='
p209
tp210
Rp211
ag1
(g5
S'\x8fM <'
p212
tp213
Rp214
ag1
(g5
S'o|S='
p215
tp216
Rp217
ag1
(g5
S'\xf6\xb2\x80<'
p218
tp219
Rp220
ag1
(g5
S'\xcbi\x18;'
p221
tp222
Rp223
ag1
(g5
S'\x07\xfbW='
p224
tp225
Rp226
ag1
(g5
S'\x04\xa5\x00<'
p227
tp228
Rp229
ag1
(g5
S'\xa5\xbf\x84;'
p230
tp231
Rp232
ag1
(g5
S'\xa4~\x12<'
p233
tp234
Rp235
ag1
(g5
S'\x08\xa7\x87<'
p236
tp237
Rp238
ag1
(g5
S']\xc1f;'
p239
tp240
Rp241
ag1
(g5
S'i\xae\xc0<'
p242
tp243
Rp244
ag1
(g5
S'\xe9\xb21;'
p245
tp246
Rp247
ag1
(g5
S'dC\xa1;'
p248
tp249
Rp250
ag1
(g5
S'\x81H\x9f<'
p251
tp252
Rp253
ag1
(g5
S'\xc2+\xb0;'
p254
tp255
Rp256
ag1
(g5
S'\xff[\xbd<'
p257
tp258
Rp259
ag1
(g5
S'\x1f\x93\xa6<'
p260
tp261
Rp262
ag1
(g5
S'Q;B='
p263
tp264
Rp265
ag1
(g5
S'Il\x87>'
p266
tp267
Rp268
ag1
(g5
S'\x1f\xc7\xed;'
p269
tp270
Rp271
ag1
(g5
S'\xf2@\xb8;'
p272
tp273
Rp274
ag1
(g5
S'?E\x85;'
p275
tp276
Rp277
ag1
(g5
S'v\x05u<'
p278
tp279
Rp280
ag1
(g5
S'G\xd8Z;'
p281
tp282
Rp283
ag1
(g5
S'[\xc8\x9a='
p284
tp285
Rp286
ag1
(g5
S'~\xb4\xbb<'
p287
tp288
Rp289
ag1
(g5
S'R;\x93;'
p290
tp291
Rp292
ag1
(g5
S'\x8e\x17\xf5='
p293
tp294
Rp295
ag1
(g5
S'/\xc2\x82;'
p296
tp297
Rp298
ag1
(g5
S't\xe22;'
p299
tp300
Rp301
ag1
(g5
S'\x8f\xca\x0b='
p302
tp303
Rp304
ag1
(g5
S'\xf65\x1c;'
p305
tp306
Rp307
ag1
(g5
S'g\xbe\xe4;'
p308
tp309
Rp310
ag1
(g5
S'\x1e(\x1b<'
p311
tp312
Rp313
ag1
(g5
S'\xebB`<'
p314
tp315
Rp316
ag1
(g5
S'\x1a\x1e\xba;'
p317
tp318
Rp319
ag1
(g5
S'=]\xc7='
p320
tp321
Rp322
ag1
(g5
S'"\x8d\x87;'
p323
tp324
Rp325
ag1
(g5
S'\x12\xd9\x83<'
p326
tp327
Rp328
ag1
(g5
S'\xf4R\x8f<'
p329
tp330
Rp331
ag1
(g5
S'\xf4\xcd\x14='
p332
tp333
Rp334
ag1
(g5
S'\x8c\x8cD='
p335
tp336
Rp337
ag1
(g5
S'\xf9\xfa\xc9;'
p338
tp339
Rp340
ag1
(g5
S'\xa3vB;'
p341
tp342
Rp343
ag1
(g5
S'\xfd1\xcf;'
p344
tp345
Rp346
ag1
(g5
S'\xa0\xca\x02<'
p347
tp348
Rp349
ag1
(g5
S'\x04T ;'
p350
tp351
Rp352
ag1
(g5
S'-ii='
p353
tp354
Rp355
ag1
(g5
S'b\xe9\xd6;'
p356
tp357
Rp358
ag1
(g5
S'\x96\xab\x0f='
p359
tp360
Rp361
ag1
(g5
S'\xf8d\xc2<'
p362
tp363
Rp364
ag1
(g5
S'\xf0\xd8\x03='
p365
tp366
Rp367
ag1
(g5
S'\xb2\xd5\x84;'
p368
tp369
Rp370
ag1
(g5
S'\xde8S<'
p371
tp372
Rp373
ag1
(g5
S'\x8a\x12\xe9;'
p374
tp375
Rp376
ag1
(g5
S'{\x14$<'
p377
tp378
Rp379
ag1
(g5
S'\xd75\x8b;'
p380
tp381
Rp382
ag1
(g5
S'\xc3\xcd)<'
p383
tp384
Rp385
ag1
(g5
S'\x93\xa2\x8a<'
p386
tp387
Rp388
ag1
(g5
S'e\x94\x00='
p389
tp390
Rp391
ag1
(g5
S'\xf4:\x92<'
p392
tp393
Rp394
ag1
(g5
S'\x03\xba\xd9<'
p395
tp396
Rp397
ag1
(g5
S'\xa5\xa5\x82;'
p398
tp399
Rp400
ag1
(g5
S'TZ\\='
p401
tp402
Rp403
ag1
(g5
S'\x80x\xb6<'
p404
tp405
Rp406
ag1
(g5
S'\x06\xb4\x99;'
p407
tp408
Rp409
ag1
(g5
S'Y\xe3\x03<'
p410
tp411
Rp412
ag1
(g5
S'\x90\x08{<'
p413
tp414
Rp415
ag1
(g5
S'\xd2#\xa8<'
p416
tp417
Rp418
ag1
(g5
S'\xd9\xc0F>'
p419
tp420
Rp421
ag1
(g5
S'\xf3\xa68;'
p422
tp423
Rp424
ag1
(g5
S'\xe4\xb5[;'
p425
tp426
Rp427
ag1
(g5
S'\re\x85;'
p428
tp429
Rp430
ag1
(g5
S'\xf7\xd2\xc8<'
p431
tp432
Rp433
ag1
(g5
S'\x11\xea\x83<'
p434
tp435
Rp436
ag1
(g5
S'J\x86\x9e<'
p437
tp438
Rp439
ag1
(g5
S'\xe1W\xbe<'
p440
tp441
Rp442
ag1
(g5
S'\xae\xd2\xa3;'
p443
tp444
Rp445
ag1
(g5
S'\x10\x8d\x8e;'
p446
tp447
Rp448
ag1
(g5
S'\xa9\x008<'
p449
tp450
Rp451
ag1
(g5
S'M,G;'
p452
tp453
Rp454
ag1
(g5
S'k\x1d\x00>'
p455
tp456
Rp457
ag1
(g5
S'\xc2+\xb0;'
p458
tp459
Rp460
ag1
(g5
S'\xc9)7<'
p461
tp462
Rp463
ag1
(g5
S'%[H;'
p464
tp465
Rp466
ag1
(g5
S'z\xa9}<'
p467
tp468
Rp469
ag1
(g5
S'<\x04{;'
p470
tp471
Rp472
ag1
(g5
S'\x93\xa2\xc0;'
p473
tp474
Rp475
ag1
(g5
S'l\x19\x91;'
p476
tp477
Rp478
ag1
(g5
S'\xf5L\xa3;'
p479
tp480
Rp481
ag1
(g5
S'T\x8e\xce;'
p482
tp483
Rp484
ag1
(g5
S'\x85\x84\x0e='
p485
tp486
Rp487
ag1
(g5
S'\x88\x9a\n<'
p488
tp489
Rp490
ag1
(g5
S'\r-A<'
p491
tp492
Rp493
ag1
(g5
S'\x89\x9a\xb4<'
p494
tp495
Rp496
ag1
(g5
S'*?\x8e;'
p497
tp498
Rp499
ag1
(g5
S'z\xe3\x88='
p500
tp501
Rp502
ag1
(g5
S'\xb5\xaf\x18<'
p503
tp504
Rp505
ag1
(g5
S'\x9edw='
p506
tp507
Rp508
ag1
(g5
S'\xcc\xcc\xdc<'
p509
tp510
Rp511
ag1
(g5
S'L\xb9\xa6<'
p512
tp513
Rp514
ag1
(g5
S';\xb9\x08<'
p515
tp516
Rp517
ag1
(g5
S'\xcb\x83W<'
p518
tp519
Rp520
ag1
(g5
S'\x15j\x86;'
p521
tp522
Rp523
ag1
(g5
S'\xe9\xf8\x83;'
p524
tp525
Rp526
ag1
(g5
S'\xcb\x158;'
p527
tp528
Rp529
ag1
(g5
S'\x8ey\x82<'
p530
tp531
Rp532
ag1
(g5
S'\x01\xc4\x94<'
p533
tp534
Rp535
ag1
(g5
S'`[\x18<'
p536
tp537
Rp538
ag1
(g5
S'\xd8\xfc\xbc<'
p539
tp540
Rp541
ag1
(g5
S'B\x995='
p542
tp543
Rp544
ag1
(g5
S':VI='
p545
tp546
Rp547
ag1
(g5
S'\r#\x0c<'
p548
tp549
Rp550
ag1
(g5
S'\x92^\x9d='
p551
tp552
Rp553
ag1
(g5
S'\xbe7&<'
p554
tp555
Rp556
ag1
(g5
S'\x08\xa5\xaf<'
p557
tp558
Rp559
ag1
(g5
S'\xb9K\x0b<'
p560
tp561
Rp562
ag1
(g5
S'\xe8\xfe3<'
p563
tp564
Rp565
ag1
(g5
S'\xb1>Z='
p566
tp567
Rp568
ag1
(g5
S'\x17\x93\x98<'
p569
tp570
Rp571
ag1
(g5
S'\x08\x170='
p572
tp573
Rp574
ag1
(g5
S'=\xdb\x8f='
p575
tp576
Rp577
ag1
(g5
S'pU";'
p578
tp579
Rp580
ag1
(g5
S'\xea{\x80<'
p581
tp582
Rp583
ag1
(g5
S'\x99\xdfC='
p584
tp585
Rp586
ag1
(g5
S'y\xf8\xf7<'
p587
tp588
Rp589
ag1
(g5
S'Ed\x1f>'
p590
tp591
Rp592
ag1
(g5
S'L\xcb\xd4<'
p593
tp594
Rp595
ag1
(g5
S'V0\xfd<'
p596
tp597
Rp598
ag1
(g5
S"'\xad\xbc="
p599
tp600
Rp601
ag1
(g5
S'9k\xc7;'
p602
tp603
Rp604
ag1
(g5
S'[\xf2+<'
p605
tp606
Rp607
ag1
(g5
S'\xccW\xdb='
p608
tp609
Rp610
ag1
(g5
S'\x8b1\x83;'
p611
tp612
Rp613
ag1
(g5
S'\xb7<\x17;'
p614
tp615
Rp616
ag1
(g5
S'\x89x\x89='
p617
tp618
Rp619
ag1
(g5
S'+\x06\xa3;'
p620
tp621
Rp622
ag1
(g5
S'\xf3\xe6\x98;'
p623
tp624
Rp625
ag1
(g5
S'7w\x89='
p626
tp627
Rp628
ag1
(g5
S'\xb1\x13]<'
p629
tp630
Rp631
ag1
(g5
S'\x8f8 ='
p632
tp633
Rp634
ag1
(g5
S'\xf8PP;'
p635
tp636
Rp637
ag1
(g5
S'lH\xbd<'
p638
tp639
Rp640
ag1
(g5
S'\x17\x9b\xbe<'
p641
tp642
Rp643
ag1
(g5
S'B2\xb6;'
p644
tp645
Rp646
ag1
(g5
S'\x98O\xe5;'
p647
tp648
Rp649
ag1
(g5
S' ;\xda<'
p650
tp651
Rp652
ag1
(g5
S'\x9dKz>'
p653
tp654
Rp655
ag1
(g5
S'\xb3\xa2\x83<'
p656
tp657
Rp658
ag1
(g5
S'\x9a\x11\x1c>'
p659
tp660
Rp661
ag1
(g5
S')\xa5,;'
p662
tp663
Rp664
ag1
(g5
S'\x9b\x91\x00<'
p665
tp666
Rp667
ag1
(g5
S'\x873\xc2;'
p668
tp669
Rp670
ag1
(g5
S'\xd4\r*<'
p671
tp672
Rp673
ag1
(g5
S'\xd4q\xc1<'
p674
tp675
Rp676
ag1
(g5
S'\x0c\x0e\xa1;'
p677
tp678
Rp679
ag1
(g5
S'\xe5\xfb\x9b<'
p680
tp681
Rp682
ag1
(g5
S'\xc1^\xba;'
p683
tp684
Rp685
ag1
(g5
S'\xc9AO<'
p686
tp687
Rp688
ag1
(g5
S'$\xb7\xa0;'
p689
tp690
Rp691
ag1
(g5
S'\x9d\x80\xa0;'
p692
tp693
Rp694
ag1
(g5
S'\xe5\xc1\x0f<'
p695
tp696
Rp697
ag1
(g5
S'\x1cud<'
p698
tp699
Rp700
ag1
(g5
S' g\xb7<'
p701
tp702
Rp703
ag1
(g5
S'\x96`\x90;'
p704
tp705
Rp706
ag1
(g5
S'\xa0\x94\xda<'
p707
tp708
Rp709
ag1
(g5
S'\x1f\x81\xb5;'
p710
tp711
Rp712
ag1
(g5
S'\xfd\xe9\xf0;'
p713
tp714
Rp715
ag1
(g5
S'\x01\xc6\x9f;'
p716
tp717
Rp718
ag1
(g5
S'\xc2`\xe3<'
p719
tp720
Rp721
ag1
(g5
S'M\t?<'
p722
tp723
Rp724
ag1
(g5
S'\r\x8d\x99;'
p725
tp726
Rp727
ag1
(g5
S'^\xf4:<'
p728
tp729
Rp730
ag1
(g5
S'\x01k/<'
p731
tp732
Rp733
ag1
(g5
S'\x003\x1c='
p734
tp735
Rp736
ag1
(g5
S'\x07"\x8e;'
p737
tp738
Rp739
ag1
(g5
S'\x1a\xb3w;'
p740
tp741
Rp742
ag1
(g5
S'D[7='
p743
tp744
Rp745
ag1
(g5
S'\xd3\xe4\xa9='
p746
tp747
Rp748
ag1
(g5
S'\xb7\x1b\x91<'
p749
tp750
Rp751
ag1
(g5
S';\xe1\x86;'
p752
tp753
Rp754
ag1
(g5
S'\xe3\x02A<'
p755
tp756
Rp757
ag1
(g5
S'\xb0\xf7\xf7;'
p758
tp759
Rp760
ag1
(g5
S'\xe3\\\xb3;'
p761
tp762
Rp763
ag1
(g5
S'\x17\xdcI;'
p764
tp765
Rp766
ag1
(g5
S'\xd4\xd1=='
p767
tp768
Rp769
ag1
(g5
S'/\xd6l;'
p770
tp771
Rp772
ag1
(g5
S'\xbaY\x86;'
p773
tp774
Rp775
ag1
(g5
S'\xb8\xd5K<'
p776
tp777
Rp778
ag1
(g5
S'\x90nW<'
p779
tp780
Rp781
ag1
(g5
S'l\x19a='
p782
tp783
Rp784
ag1
(g5
S'\x91m\x8c<'
p785
tp786
Rp787
ag1
(g5
S'7\xfbG<'
p788
tp789
Rp790
ag1
(g5
S'{\x93\xda;'
p791
tp792
Rp793
ag1
(g5
S'\xf5p\xaa;'
p794
tp795
Rp796
ag1
(g5
S'\xaf\x071;'
p797
tp798
Rp799
ag1
(g5
S'\x1a8-;'
p800
tp801
Rp802
ag1
(g5
S'\x1c\xf8,<'
p803
tp804
Rp805
ag1
(g5
S'l\xb9";'
p806
tp807
Rp808
ag1
(g5
S'er\xd5;'
p809
tp810
Rp811
ag1
(g5
S'0\x14\xf1<'
p812
tp813
Rp814
ag1
(g5
S'\x83O\xa2<'
p815
tp816
Rp817
ag1
(g5
S's\x84\xcf<'
p818
tp819
Rp820
ag1
(g5
S'\x15\xb4\t<'
p821
tp822
Rp823
ag1
(g5
S'T,\x8b;'
p824
tp825
Rp826
ag1
(g5
S'\xe5\xb40;'
p827
tp828
Rp829
ag1
(g5
S'\x8b\xbc\xa2='
p830
tp831
Rp832
ag1
(g5
S'bU\xa7;'
p833
tp834
Rp835
ag1
(g5
S'\xc3\x81\x17>'
p836
tp837
Rp838
ag1
(g5
S'\xfc\x91\x14='
p839
tp840
Rp841
ag1
(g5
S'K\x1d\xe0;'
p842
tp843
Rp844
ag1
(g5
S'f\xf9\x19<'
p845
tp846
Rp847
ag1
(g5
S'dqA;'
p848
tp849
Rp850
ag1
(g5
S'\x86\x08:;'
p851
tp852
Rp853
ag1
(g5
S'M\x06\x98;'
p854
tp855
Rp856
ag1
(g5
S'\xbbJ\x99<'
p857
tp858
Rp859
ag1
(g5
S'k=f;'
p860
tp861
Rp862
ag1
(g5
S'\xcc\xd6\x91;'
p863
tp864
Rp865
ag1
(g5
S'\xbc\xd8\xbd;'
p866
tp867
Rp868
ag1
(g5
S'\x97\x16\x95;'
p869
tp870
Rp871
ag1
(g5
S'8t2;'
p872
tp873
Rp874
ag1
(g5
S'\xda?\x02<'
p875
tp876
Rp877
ag1
(g5
S'J\x13L;'
p878
tp879
Rp880
ag1
(g5
S'\xf2\xcd\x0b>'
p881
tp882
Rp883
ag1
(g5
S'\xb6c2;'
p884
tp885
Rp886
ag1
(g5
S'\n\x8a\x80<'
p887
tp888
Rp889
ag1
(g5
S'\xfc&5;'
p890
tp891
Rp892
ag1
(g5
S'.\x866>'
p893
tp894
Rp895
ag1
(g5
S'\\\xd1U<'
p896
tp897
Rp898
ag1
(g5
S'\xf3\x0f\x9a<'
p899
tp900
Rp901
ag1
(g5
S'\xab6\xfc;'
p902
tp903
Rp904
ag1
(g5
S'7o\xb2<'
p905
tp906
Rp907
ag1
(g5
S'S\xfa\xda;'
p908
tp909
Rp910
ag1
(g5
S'\xba\x82{<'
p911
tp912
Rp913
ag1
(g5
S'y\xb1N<'
p914
tp915
Rp916
ag1
(g5
S'\x7f\x90\xcd<'
p917
tp918
Rp919
ag1
(g5
S'\xf2h\x17;'
p920
tp921
Rp922
ag1
(g5
S'h\x1b=='
p923
tp924
Rp925
ag1
(g5
S'm[T;'
p926
tp927
Rp928
ag1
(g5
S'.\xd9,='
p929
tp930
Rp931
ag1
(g5
S'\xb5\xdfU<'
p932
tp933
Rp934
ag1
(g5
S'\xdf\xd1\x92;'
p935
tp936
Rp937
ag1
(g5
S'\x92\x18:='
p938
tp939
Rp940
ag1
(g5
S'\xb2\xac\xc5;'
p941
tp942
Rp943
ag1
(g5
S'+>2='
p944
tp945
Rp946
ag1
(g5
S'\xe3@\x1a<'
p947
tp948
Rp949
ag1
(g5
S'\xe5\xf2[<'
p950
tp951
Rp952
ag1
(g5
S"\x8a'\xab;"
p953
tp954
Rp955
ag1
(g5
S'H\n\x0c<'
p956
tp957
Rp958
ag1
(g5
S'\xbc\xd1\x81<'
p959
tp960
Rp961
ag1
(g5
S'\x01\xb3\x14<'
p962
tp963
Rp964
ag1
(g5
S'\xec1m<'
p965
tp966
Rp967
ag1
(g5
S'\xebz\x83;'
p968
tp969
Rp970
ag1
(g5
S'9\xc1[>'
p971
tp972
Rp973
ag1
(g5
S'\x90>\n<'
p974
tp975
Rp976
ag1
(g5
S'\x9e\x19\xe3;'
p977
tp978
Rp979
ag1
(g5
S'Vuf<'
p980
tp981
Rp982
ag1
(g5
S')\xd5\x01='
p983
tp984
Rp985
ag1
(g5
S'\xde\xd6\xa4='
p986
tp987
Rp988
ag1
(g5
S'\xcc\xf7:;'
p989
tp990
Rp991
ag1
(g5
S'\xd1\x90R='
p992
tp993
Rp994
ag1
(g5
S'\x0c\xb1\xc3;'
p995
tp996
Rp997
ag1
(g5
S'`\xd9\xe8='
p998
tp999
Rp1000
ag1
(g5
S'3\x89\xb3='
p1001
tp1002
Rp1003
ag1
(g5
S'\xf6\xff!<'
p1004
tp1005
Rp1006
ag1
(g5
S'\xfc\x82\xdc;'
p1007
tp1008
Rp1009
ag1
(g5
S'_\xba\xe2='
p1010
tp1011
Rp1012
ag1
(g5
S'\xf3o\xa3='
p1013
tp1014
Rp1015
ag1
(g5
S'\xf2\x01\xcb;'
p1016
tp1017
Rp1018
ag1
(g5
S'A\x9d\x1c;'
p1019
tp1020
Rp1021
ag1
(g5
S'\xd9\x91\xa1<'
p1022
tp1023
Rp1024
ag1
(g5
S'\x85\xec\x0f<'
p1025
tp1026
Rp1027
ag1
(g5
S'\xc1&\xdf<'
p1028
tp1029
Rp1030
ag1
(g5
S'\x8b\xd5U='
p1031
tp1032
Rp1033
ag1
(g5
S'\xc00\x8b<'
p1034
tp1035
Rp1036
ag1
(g5
S'T\xe2\x81;'
p1037
tp1038
Rp1039
ag1
(g5
S'{|D='
p1040
tp1041
Rp1042
ag1
(g5
S'`\xce\xa2>'
p1043
tp1044
Rp1045
ag1
(g5
S'\x9c\x8f<<'
p1046
tp1047
Rp1048
ag1
(g5
S'x\x91\xea<'
p1049
tp1050
Rp1051
ag1
(g5
S'\xe2\x1a\xa1;'
p1052
tp1053
Rp1054
ag1
(g5
S'\x08q\x00<'
p1055
tp1056
Rp1057
ag1
(g5
S'\x0c\x0c\xa1<'
p1058
tp1059
Rp1060
ag1
(g5
S'\x82\xee\x99='
p1061
tp1062
Rp1063
ag1
(g5
S'u\x8c\x1d<'
p1064
tp1065
Rp1066
ag1
(g5
S'\xf0\x8f\x01<'
p1067
tp1068
Rp1069
ag1
(g5
S'/\x1a\xc6;'
p1070
tp1071
Rp1072
ag1
(g5
S'\x10\x83i;'
p1073
tp1074
Rp1075
ag1
(g5
S'\x07\n\x81<'
p1076
tp1077
Rp1078
ag1
(g5
S'\xe9Ws<'
p1079
tp1080
Rp1081
ag1
(g5
S'\x96\xe7$;'
p1082
tp1083
Rp1084
ag1
(g5
S'\x84}\xc1='
p1085
tp1086
Rp1087
ag1
(g5
S'\x1b]\xb4;'
p1088
tp1089
Rp1090
ag1
(g5
S'K1\x7f;'
p1091
tp1092
Rp1093
ag1
(g5
S'9\xcb\xc8<'
p1094
tp1095
Rp1096
ag1
(g5
S'w\xe4>;'
p1097
tp1098
Rp1099
ag1
(g5
S'e*F<'
p1100
tp1101
Rp1102
ag1
(g5
S'\x83\xa5m;'
p1103
tp1104
Rp1105
ag1
(g5
S'\xa7#\xe0;'
p1106
tp1107
Rp1108
ag1
(g5
S'[\xc8\x9a='
p1109
tp1110
Rp1111
ag1
(g5
S'\xc2\xd7R<'
p1112
tp1113
Rp1114
ag1
(g5
S'H\x85^<'
p1115
tp1116
Rp1117
ag1
(g5
S'\x1c[}<'
p1118
tp1119
Rp1120
ag1
(g5
S'\xc0\xf5\xbd<'
p1121
tp1122
Rp1123
ag1
(g5
S'\xe7\x88\x81<'
p1124
tp1125
Rp1126
ag1
(g5
S'\xbb\xc1\xe8='
p1127
tp1128
Rp1129
ag1
(g5
S'\x05Xv;'
p1130
tp1131
Rp1132
ag1
(g5
S'P\xf2[<'
p1133
tp1134
Rp1135
ag1
(g5
S'\x7f\xad\x11='
p1136
tp1137
Rp1138
ag1
(g5
S'w\x1f\xc0<'
p1139
tp1140
Rp1141
ag1
(g5
S'\xf9e\x99<'
p1142
tp1143
Rp1144
ag1
(g5
S'\x1d=\x9c<'
p1145
tp1146
Rp1147
ag1
(g5
S'\x85\x92\xc2;'
p1148
tp1149
Rp1150
ag1
(g5
S'\x1f\x0c\x9c;'
p1151
tp1152
Rp1153
ag1
(g5
S'k\xca\xa5;'
p1154
tp1155
Rp1156
ag1
(g5
S'\xc2\xf8\x8b<'
p1157
tp1158
Rp1159
ag1
(g5
S'\xa8\xd3\x17>'
p1160
tp1161
Rp1162
ag1
(g5
S'd\x1b\xbf;'
p1163
tp1164
Rp1165
ag1
(g5
S'\x985G<'
p1166
tp1167
Rp1168
ag1
(g5
S'\xb2\xd5\x84;'
p1169
tp1170
Rp1171
ag1
(g5
S'\xd3U+<'
p1172
tp1173
Rp1174
ag1
(g5
S'\xdf\n\x95;'
p1175
tp1176
Rp1177
ag1
(g5
S'\xa4\xb7Z>'
p1178
tp1179
Rp1180
ag1
(g5
S'0\xcc\xa2;'
p1181
tp1182
Rp1183
ag1
(g5
S'\xa4\x8d\x86;'
p1184
tp1185
Rp1186
ag1
(g5
S'\xe8l\xa0<'
p1187
tp1188
Rp1189
ag1
(g5
S'$d\x92;'
p1190
tp1191
Rp1192
ag1
(g5
S'\xa1\xd5\x02='
p1193
tp1194
Rp1195
ag1
(g5
S'\xcd\xc4\x8b<'
p1196
tp1197
Rp1198
ag1
(g5
S'\xeb\xd9\xfe<'
p1199
tp1200
Rp1201
ag1
(g5
S'\xdcs\xb5;'
p1202
tp1203
Rp1204
ag1
(g5
S'\xadZ\xf2<'
p1205
tp1206
Rp1207
ag1
(g5
S'\xd8\x89\x8a<'
p1208
tp1209
Rp1210
ag1
(g5
S'.\xd5\x0c='
p1211
tp1212
Rp1213
ag1
(g5
S'\xe2|\xb1;'
p1214
tp1215
Rp1216
ag1
(g5
S'f\x1a\x99='
p1217
tp1218
Rp1219
ag1
(g5
S'=Gl<'
p1220
tp1221
Rp1222
ag1
(g5
S'\x99\xa3\x86;'
p1223
tp1224
Rp1225
ag1
(g5
S'ac\x81;'
p1226
tp1227
Rp1228
ag1
(g5
S'`\x95D;'
p1229
tp1230
Rp1231
ag1
(g5
S'\x94\xe5\xd6;'
p1232
tp1233
Rp1234
ag1
(g5
S'_\x1b\xbc<'
p1235
tp1236
Rp1237
ag1
(g5
S'\x06\xb4\xbf;'
p1238
tp1239
Rp1240
ag1
(g5
S'\x89\x82\xb0;'
p1241
tp1242
Rp1243
ag1
(g5
S'&\xb5\x9e<'
p1244
tp1245
Rp1246
ag1
(g5
S',\xd0\n<'
p1247
tp1248
Rp1249
ag1
(g5
S'\xd2\xe2\xd7<'
p1250
tp1251
Rp1252
ag1
(g5
S'\xa4\x90\x9e;'
p1253
tp1254
Rp1255
ag1
(g5
S'q\xd2!<'
p1256
tp1257
Rp1258
ag1
(g5
S'\xe2m|<'
p1259
tp1260
Rp1261
ag1
(g5
S'0,\xa6;'
p1262
tp1263
Rp1264
ag1
(g5
S'S>\x7f;'
p1265
tp1266
Rp1267
ag1
(g5
S'm~|<'
p1268
tp1269
Rp1270
ag1
(g5
S'\xd1pH='
p1271
tp1272
Rp1273
ag1
(g5
S'J\x1at>'
p1274
tp1275
Rp1276
ag1
(g5
S'\xf3\x82~;'
p1277
tp1278
Rp1279
ag1
(g5
S'\x8ce\x0b='
p1280
tp1281
Rp1282
ag1
(g5
S'h\xb3\xba;'
p1283
tp1284
Rp1285
ag1
(g5
S'\xc91\x83;'
p1286
tp1287
Rp1288
ag1
(g5
S'\xca\xe0h;'
p1289
tp1290
Rp1291
ag1
(g5
S'\xaf\xe3\x97;'
p1292
tp1293
Rp1294
ag1
(g5
S';\xce\xb9<'
p1295
tp1296
Rp1297
ag1
(g5
S'\x8e\x85/<'
p1298
tp1299
Rp1300
ag1
(g5
S'\x97\x1a\xe8<'
p1301
tp1302
Rp1303
ag1
(g5
S'\xa2\x15\x1c<'
p1304
tp1305
Rp1306
ag1
(g5
S'c=\xf2<'
p1307
tp1308
Rp1309
ag1
(g5
S'\x94\xf0B;'
p1310
tp1311
Rp1312
ag1
(g5
S'\xe7\x1ft='
p1313
tp1314
Rp1315
ag1
(g5
S'X\xb0\x08='
p1316
tp1317
Rp1318
ag1
(g5
S'\x1b\xc8\xaf;'
p1319
tp1320
Rp1321
ag1
(g5
S's\x034<'
p1322
tp1323
Rp1324
ag1
(g5
S'\xad7f;'
p1325
tp1326
Rp1327
ag1
(g5
S'A\x98\x94;'
p1328
tp1329
Rp1330
ag1
(g5
S'\xca\xec\xf0;'
p1331
tp1332
Rp1333
ag1
(g5
S'J\xbdM<'
p1334
tp1335
Rp1336
ag1
(g5
S'\ro=<'
p1337
tp1338
Rp1339
ag1
(g5
S'\xc6^R='
p1340
tp1341
Rp1342
ag1
(g5
S'\xcd\xab\x05='
p1343
tp1344
Rp1345
ag1
(g5
S'n\xdf\x82<'
p1346
tp1347
Rp1348
ag1
(g5
S'\xf9me;'
p1349
tp1350
Rp1351
ag1
(g5
S'\xdc \r='
p1352
tp1353
Rp1354
ag1
(g5
S'q\xd3\xd3<'
p1355
tp1356
Rp1357
ag1
(g5
S't\x88\xe9<'
p1358
tp1359
Rp1360
ag1
(g5
S'\xb4\xb8\xb1;'
p1361
tp1362
Rp1363
ag1
(g5
S'\x8b\x02\xb8;'
p1364
tp1365
Rp1366
ag1
(g5
S':\xc7\x1b='
p1367
tp1368
Rp1369
ag1
(g5
S'\xee\x1e,='
p1370
tp1371
Rp1372
ag1
(g5
S'6+\xb8;'
p1373
tp1374
Rp1375
ag1
(g5
S'\xe7rs='
p1376
tp1377
Rp1378
ag1
(g5
S'\x80f\xff;'
p1379
tp1380
Rp1381
ag1
(g5
S'}3\xa6<'
p1382
tp1383
Rp1384
ag1
(g5
S'\x11\xd6\xfc;'
p1385
tp1386
Rp1387
ag1
(g5
S'`"\xf7;'
p1388
tp1389
Rp1390
ag1
(g5
S'e\xdc\x1f;'
p1391
tp1392
Rp1393
ag1
(g5
S'3\t\xeb='
p1394
tp1395
Rp1396
ag1
(g5
S'~GW<'
p1397
tp1398
Rp1399
ag1
(g5
S'\xfd\xa3A='
p1400
tp1401
Rp1402
ag1
(g5
S'\xf3g;<'
p1403
tp1404
Rp1405
ag1
(g5
S'\xb0\x01\xd6<'
p1406
tp1407
Rp1408
ag1
(g5
S'3lG<'
p1409
tp1410
Rp1411
ag1
(g5
S'\x04Y\xb5;'
p1412
tp1413
Rp1414
ag1
(g5
S'\xca\xda\x8c<'
p1415
tp1416
Rp1417
ag1
(g5
S'\xec\xc7\x03<'
p1418
tp1419
Rp1420
ag1
(g5
S'/\xb8\xb1<'
p1421
tp1422
Rp1423
ag1
(g5
S'\xfa\x00/<'
p1424
tp1425
Rp1426
ag1
(g5
S'\xfb]\x07='
p1427
tp1428
Rp1429
ag1
(g5
S'\xca+\x10<'
p1430
tp1431
Rp1432
ag1
(g5
S'\xc5\xf8\x9c;'
p1433
tp1434
Rp1435
ag1
(g5
S'\xfb\x05\xae;'
p1436
tp1437
Rp1438
ag1
(g5
S'8\xd7\xd3;'
p1439
tp1440
Rp1441
ag1
(g5
S'\xfe\xdby<'
p1442
tp1443
Rp1444
ag1
(g5
S'\x8a\x06*<'
p1445
tp1446
Rp1447
ag1
(g5
S'z:\xec>'
p1448
tp1449
Rp1450
ag1
(g5
S'\xa2O\xc4<'
p1451
tp1452
Rp1453
ag1
(g5
S'\x08Q\x92<'
p1454
tp1455
Rp1456
ag1
(g5
S'\xef\xbc4<'
p1457
tp1458
Rp1459
ag1
(g5
S'\x7f\x14\x17<'
p1460
tp1461
Rp1462
ag1
(g5
S'\xb8\xb1\x84<'
p1463
tp1464
Rp1465
ag1
(g5
S't\xfa\x8d;'
p1466
tp1467
Rp1468
ag1
(g5
S'\x14_\xa7;'
p1469
tp1470
Rp1471
ag1
(g5
S'!\xeb\x94<'
p1472
tp1473
Rp1474
ag1
(g5
S'\xc8\xba-<'
p1475
tp1476
Rp1477
ag1
(g5
S'1\xe2W<'
p1478
tp1479
Rp1480
ag1
(g5
S'\xc7\xeaC='
p1481
tp1482
Rp1483
ag1
(g5
S't\xa2\xd2='
p1484
tp1485
Rp1486
ag1
(g5
S'\r\xfb\xee<'
p1487
tp1488
Rp1489
ag1
(g5
S'`\xc8\xd8<'
p1490
tp1491
Rp1492
ag1
(g5
S'n\xd9\xa2<'
p1493
tp1494
Rp1495
ag1
(g5
S'+\x85\xa8;'
p1496
tp1497
Rp1498
ag1
(g5
S'\xd7\x93\xa1;'
p1499
tp1500
Rp1501
ag1
(g5
S'\xcd\x8a-<'
p1502
tp1503
Rp1504
ag1
(g5
S'\x96C\x93;'
p1505
tp1506
Rp1507
ag1
(g5
S'>pi<'
p1508
tp1509
Rp1510
ag1
(g5
S'\xbaQ!='
p1511
tp1512
Rp1513
ag1
(g5
S'B\x08\xbf<'
p1514
tp1515
Rp1516
ag1
(g5
S'\x1e\xd4\xd6;'
p1517
tp1518
Rp1519
ag1
(g5
S'G\x1bO='
p1520
tp1521
Rp1522
ag1
(g5
S'\xa7\x9c\x89<'
p1523
tp1524
Rp1525
ag1
(g5
S'\xfeG ;'
p1526
tp1527
Rp1528
ag1
(g5
S'T\xed:='
p1529
tp1530
Rp1531
ag1
(g5
S'\x96*\x1e<'
p1532
tp1533
Rp1534
ag1
(g5
S'\x1d\x10\x91;'
p1535
tp1536
Rp1537
ag1
(g5
S'=\xcc\x11<'
p1538
tp1539
Rp1540
ag1
(g5
S'!g[='
p1541
tp1542
Rp1543
ag1
(g5
S'\xba\xaa\xd1;'
p1544
tp1545
Rp1546
ag1
(g5
S'].\x8e;'
p1547
tp1548
Rp1549
ag1
(g5
S'\x11\x10A>'
p1550
tp1551
Rp1552
ag1
(g5
S'\x03\xbe\x07<'
p1553
tp1554
Rp1555
ag1
(g5
S'=o\xd5;'
p1556
tp1557
Rp1558
ag1
(g5
S'\xa9\x8bG='
p1559
tp1560
Rp1561
ag1
(g5
S'\xcb\xc7\x8c;'
p1562
tp1563
Rp1564
ag1
(g5
S'u\xa1\xeb<'
p1565
tp1566
Rp1567
ag1
(g5
S'\x8d\x1d|;'
p1568
tp1569
Rp1570
ag1
(g5
S'aH\xb7;'
p1571
tp1572
Rp1573
ag1
(g5
S'\xaa|\x9d<'
p1574
tp1575
Rp1576
ag1
(g5
S"1\x84'<"
p1577
tp1578
Rp1579
ag1
(g5
S'\xee+\xb8<'
p1580
tp1581
Rp1582
ag1
(g5
S'd\x13#<'
p1583
tp1584
Rp1585
ag1
(g5
S'G\xa7\x7f;'
p1586
tp1587
Rp1588
ag1
(g5
S'\xfe\xdd\x9a;'
p1589
tp1590
Rp1591
ag1
(g5
S'\xc0%\x87='
p1592
tp1593
Rp1594
ag1
(g5
S'G\xb4\xa4='
p1595
tp1596
Rp1597
ag1
(g5
S'<>J='
p1598
tp1599
Rp1600
ag1
(g5
S'\xee \x95<'
p1601
tp1602
Rp1603
ag1
(g5
S'\xd9&\x1c<'
p1604
tp1605
Rp1606
ag1
(g5
S'1E\x15<'
p1607
tp1608
Rp1609
ag1
(g5
S'\xa8\xd7g<'
p1610
tp1611
Rp1612
ag1
(g5
S'\x88\x00-<'
p1613
tp1614
Rp1615
ag1
(g5
S'3\xef#='
p1616
tp1617
Rp1618
ag1
(g5
S'G\xa1@='
p1619
tp1620
Rp1621
ag1
(g5
S'6}\xa4<'
p1622
tp1623
Rp1624
ag1
(g5
S'_\xa8\x06<'
p1625
tp1626
Rp1627
ag1
(g5
S'\xf5\xe0\xac;'
p1628
tp1629
Rp1630
ag1
(g5
S"'1I;"
p1631
tp1632
Rp1633
ag1
(g5
S'qJ\xde;'
p1634
tp1635
Rp1636
ag1
(g5
S'\xdc]\xf0<'
p1637
tp1638
Rp1639
ag1
(g5
S'2"!='
p1640
tp1641
Rp1642
ag1
(g5
S'5\xa0q<'
p1643
tp1644
Rp1645
ag1
(g5
S'U\x90\x06<'
p1646
tp1647
Rp1648
ag1
(g5
S'\x15t|<'
p1649
tp1650
Rp1651
ag1
(g5
S's\xf0\xd4;'
p1652
tp1653
Rp1654
ag1
(g5
S'L\xc3\x99<'
p1655
tp1656
Rp1657
ag1
(g5
S'\xa2\xa3\xc3;'
p1658
tp1659
Rp1660
ag1
(g5
S'\xfbv\xcf<'
p1661
tp1662
Rp1663
ag1
(g5
S'\xb39\x84='
p1664
tp1665
Rp1666
ag1
(g5
S'\x1a(\xc9;'
p1667
tp1668
Rp1669
ag1
(g5
S'T\xf4\x1f='
p1670
tp1671
Rp1672
ag1
(g5
S'>Wt;'
p1673
tp1674
Rp1675
ag1
(g5
S')\xa0\xeb;'
p1676
tp1677
Rp1678
ag1
(g5
S'0%4<'
p1679
tp1680
Rp1681
ag1
(g5
S'\xdb\xf5Z='
p1682
tp1683
Rp1684
ag1
(g5
S'\x94H\xb0>'
p1685
tp1686
Rp1687
ag1
(g5
S'\xa5\xc0\x96;'
p1688
tp1689
Rp1690
ag1
(g5
S'\x18\xfc\x90;'
p1691
tp1692
Rp1693
ag1
(g5
S'\x19\x8f\x9e;'
p1694
tp1695
Rp1696
ag1
(g5
S'(\xaf*='
p1697
tp1698
Rp1699
ag1
(g5
S'm\xf7\xe0;'
p1700
tp1701
Rp1702
ag1
(g5
S'CW\xd5<'
p1703
tp1704
Rp1705
ag1
(g5
S'\x98\xf3+='
p1706
tp1707
Rp1708
ag1
(g5
S'>\xdd\xd2;'
p1709
tp1710
Rp1711
ag1
(g5
S'\xb6\xa5d='
p1712
tp1713
Rp1714
ag1
(g5
S'\x90\xea#;'
p1715
tp1716
Rp1717
ag1
(g5
S'o\n.;'
p1718
tp1719
Rp1720
ag1
(g5
S'\x90s\x13<'
p1721
tp1722
Rp1723
ag1
(g5
S'\x153\x10='
p1724
tp1725
Rp1726
ag1
(g5
S'WO8='
p1727
tp1728
Rp1729
ag1
(g5
S'<\x0f\xf8<'
p1730
tp1731
Rp1732
ag1
(g5
S'|\xb8h='
p1733
tp1734
Rp1735
ag1
(g5
S'\x04\xd6\xa1;'
p1736
tp1737
Rp1738
ag1
(g5
S'\x8c\xec><'
p1739
tp1740
Rp1741
ag1
(g5
S'\xd4\xad\xd6='
p1742
tp1743
Rp1744
ag1
(g5
S'oc%<'
p1745
tp1746
Rp1747
ag1
(g5
S'\xf1)\xc6<'
p1748
tp1749
Rp1750
ag1
(g5
S'\xc8\xee\xa0;'
p1751
tp1752
Rp1753
ag1
(g5
S'b\xa5x;'
p1754
tp1755
Rp1756
ag1
(g5
S'\x8b\x86\x06<'
p1757
tp1758
Rp1759
ag1
(g5
S'\x12C,;'
p1760
tp1761
Rp1762
ag1
(g5
S'\xe083;'
p1763
tp1764
Rp1765
ag1
(g5
S'\x92\xe2\xe4;'
p1766
tp1767
Rp1768
ag1
(g5
S'\xe0\xf7O<'
p1769
tp1770
Rp1771
ag1
(g5
S'Q\x94\n='
p1772
tp1773
Rp1774
ag1
(g5
S'\xa8\xac\x8d<'
p1775
tp1776
Rp1777
ag1
(g5
S'\x0c\xe4\x07='
p1778
tp1779
Rp1780
ag1
(g5
S'\xfapK;'
p1781
tp1782
Rp1783
ag1
(g5
S'Y\x8eu<'
p1784
tp1785
Rp1786
ag1
(g5
S'zv:;'
p1787
tp1788
Rp1789
ag1
(g5
S'\xfe(j<'
p1790
tp1791
Rp1792
ag1
(g5
S'\x02"0='
p1793
tp1794
Rp1795
ag1
(g5
S')\xa7\xf9<'
p1796
tp1797
Rp1798
ag1
(g5
S'\xe4\xbbC<'
p1799
tp1800
Rp1801
ag1
(g5
S'\x81?\x1d<'
p1802
tp1803
Rp1804
ag1
(g5
S'\x03\x8e\x7f;'
p1805
tp1806
Rp1807
ag1
(g5
S'E\xaaK<'
p1808
tp1809
Rp1810
ag1
(g5
S'=\x8b\xad<'
p1811
tp1812
Rp1813
ag1
(g5
S'\x98Q\xb3<'
p1814
tp1815
Rp1816
ag1
(g5
S'\xd6\x1fs<'
p1817
tp1818
Rp1819
ag1
(g5
S'\xc5\xf8\x9c;'
p1820
tp1821
Rp1822
ag1
(g5
S'q\xe1\xa0='
p1823
tp1824
Rp1825
ag1
(g5
S'\xf9\xc7\x0c<'
p1826
tp1827
Rp1828
ag1
(g5
S'\xa5?/<'
p1829
tp1830
Rp1831
ag1
(g5
S"f4'<"
p1832
tp1833
Rp1834
ag1
(g5
S'\x1b0\x99;'
p1835
tp1836
Rp1837
ag1
(g5
S'\xdc8\x15='
p1838
tp1839
Rp1840
ag1
(g5
S'u(G<'
p1841
tp1842
Rp1843
ag1
(g5
S'\xf1\xc6\x9b='
p1844
tp1845
Rp1846
ag1
(g5
S'\xec}v<'
p1847
tp1848
Rp1849
ag1
(g5
S'T\xf4\x1f='
p1850
tp1851
Rp1852
ag1
(g5
S']3\xe0<'
p1853
tp1854
Rp1855
ag1
(g5
S'\x8d\xaag>'
p1856
tp1857
Rp1858
ag1
(g5
S'\x02N\x18='
p1859
tp1860
Rp1861
ag1
(g5
S'/\xd7\x99;'
p1862
tp1863
Rp1864
ag1
(g5
S',\xae\xa2>'
p1865
tp1866
Rp1867
ag1
(g5
S'\xab\xf8\xd9<'
p1868
tp1869
Rp1870
ag1
(g5
S'\x0cE\xeb;'
p1871
tp1872
Rp1873
ag1
(g5
S'\x84u\t<'
p1874
tp1875
Rp1876
ag1
(g5
S'\x13cC='
p1877
tp1878
Rp1879
ag1
(g5
S'\xe6\xd4\\;'
p1880
tp1881
Rp1882
ag1
(g5
S'J\xf8\xd8='
p1883
tp1884
Rp1885
ag1
(g5
S'1|\xe2;'
p1886
tp1887
Rp1888
ag1
(g5
S'\xc0R\xea;'
p1889
tp1890
Rp1891
ag1
(g5
S'\xd6=\xb7;'
p1892
tp1893
Rp1894
ag1
(g5
S'\x08@\x9a;'
p1895
tp1896
Rp1897
ag1
(g5
S'\xe7\xb6u;'
p1898
tp1899
Rp1900
ag1
(g5
S'\x07W\x04;'
p1901
tp1902
Rp1903
ag1
(g5
S'A+\xa8;'
p1904
tp1905
Rp1906
ag1
(g5
S'\xd8\xa1\xe0<'
p1907
tp1908
Rp1909
ag1
(g5
S'\xba\x8f\xe3;'
p1910
tp1911
Rp1912
ag1
(g5
S'\xf0\x1b\xb0='
p1913
tp1914
Rp1915
ag1
(g5
S'=\x1a\xb7;'
p1916
tp1917
Rp1918
ag1
(g5
S'_\x0b\x06<'
p1919
tp1920
Rp1921
ag1
(g5
S'\x98D,='
p1922
tp1923
Rp1924
ag1
(g5
S'~;\x06<'
p1925
tp1926
Rp1927
ag1
(g5
S'\xca*B='
p1928
tp1929
Rp1930
ag1
(g5
S'C\n\xe8='
p1931
tp1932
Rp1933
ag1
(g5
S'\xe1\x10\x16='
p1934
tp1935
Rp1936
ag1
(g5
S'\xdeD\xa7;'
p1937
tp1938
Rp1939
ag1
(g5
S'\x02\x08\xb0='
p1940
tp1941
Rp1942
ag1
(g5
S'v\xac\xfd;'
p1943
tp1944
Rp1945
ag1
(g5
S'\x9b\x16I='
p1946
tp1947
Rp1948
ag1
(g5
S'z8[;'
p1949
tp1950
Rp1951
ag1
(g5
S'\xef\x96\x9a;'
p1952
tp1953
Rp1954
ag1
(g5
S'\xb1\xe6\x06;'
p1955
tp1956
Rp1957
ag1
(g5
S'\x7fBr='
p1958
tp1959
Rp1960
ag1
(g5
S'}\x8a\x81<'
p1961
tp1962
Rp1963
ag1
(g5
S'\x9b0\x96;'
p1964
tp1965
Rp1966
ag1
(g5
S'\xe4\x8c^;'
p1967
tp1968
Rp1969
ag1
(g5
S'9\x81\x01<'
p1970
tp1971
Rp1972
ag1
(g5
S'\x16\r\x01<'
p1973
tp1974
Rp1975
ag1
(g5
S'G\xb3\x9b='
p1976
tp1977
Rp1978
ag1
(g5
S'83\xbf;'
p1979
tp1980
Rp1981
ag1
(g5
S'\x89\x170<'
p1982
tp1983
Rp1984
ag1
(g5
S'\x94\x01z;'
p1985
tp1986
Rp1987
ag1
(g5
S'\xf9\x19\xae<'
p1988
tp1989
Rp1990
ag1
(g5
S'\x99\x82&='
p1991
tp1992
Rp1993
ag1
(g5
S'\x9f\xbe\xee;'
p1994
tp1995
Rp1996
ag1
(g5
S'\x04n\x8d;'
p1997
tp1998
Rp1999
ag1
(g5
S'\xc0\x93\x06='
p2000
tp2001
Rp2002
ag1
(g5
S'\x9c\xcc\x04='
p2003
tp2004
Rp2005
ag1
(g5
S'\xecJ\xef<'
p2006
tp2007
Rp2008
ag1
(g5
S'\x97/2='
p2009
tp2010
Rp2011
ag1
(g5
S'\x13\x9c\xa0;'
p2012
tp2013
Rp2014
ag1
(g5
S'G\x94\x00;'
p2015
tp2016
Rp2017
ag1
(g5
S'x\xb9\xb2<'
p2018
tp2019
Rp2020
ag1
(g5
S'\xe2e<;'
p2021
tp2022
Rp2023
ag1
(g5
S'J\xf8F='
p2024
tp2025
Rp2026
ag1
(g5
S'\xa6\xe8v<'
p2027
tp2028
Rp2029
ag1
(g5
S'K\xf9S>'
p2030
tp2031
Rp2032
ag1
(g5
S'\x07\xfe\xf1;'
p2033
tp2034
Rp2035
ag1
(g5
S'\xe8\xec\xb7;'
p2036
tp2037
Rp2038
ag1
(g5
S'\x056\x81;'
p2039
tp2040
Rp2041
ag1
(g5
S'\xec\xd70<'
p2042
tp2043
Rp2044
ag1
(g5
S"\xa1'N;"
p2045
tp2046
Rp2047
ag1
(g5
S'\xac\xed4='
p2048
tp2049
Rp2050
ag1
(g5
S'd\x12\xc4<'
p2051
tp2052
Rp2053
ag1
(g5
S'\xa7^\xab;'
p2054
tp2055
Rp2056
ag1
(g5
S'b^i<'
p2057
tp2058
Rp2059
ag1
(g5
S'k\xbd)='
p2060
tp2061
Rp2062
ag1
(g5
S'\xc4l\xa1<'
p2063
tp2064
Rp2065
ag1
(g5
S'\xee1\x88;'
p2066
tp2067
Rp2068
ag1
(g5
S'\xf9j2<'
p2069
tp2070
Rp2071
ag1
(g5
S'-f\xbf;'
p2072
tp2073
Rp2074
ag1
(g5
S'\xaf\xcf\\;'
p2075
tp2076
Rp2077
ag1
(g5
S'\xb39\x84='
p2078
tp2079
Rp2080
ag1
(g5
S'*AK<'
p2081
tp2082
Rp2083
ag1
(g5
S'\xebP\xdb<'
p2084
tp2085
Rp2086
ag1
(g5
S'\x8b\xe5P='
p2087
tp2088
Rp2089
ag1
(g5
S'\x12a\xaf<'
p2090
tp2091
Rp2092
ag1
(g5
S'\\e\xff;'
p2093
tp2094
Rp2095
ag1
(g5
S'\x99j\xab;'
p2096
tp2097
Rp2098
ag1
(g5
S"'\xa3\x0c>"
p2099
tp2100
Rp2101
ag1
(g5
S'qX)<'
p2102
tp2103
Rp2104
ag1
(g5
S'my\xc0;'
p2105
tp2106
Rp2107
ag1
(g5
S'\xd1\xf8P<'
p2108
tp2109
Rp2110
ag1
(g5
S'\xf1\x06\xa2<'
p2111
tp2112
Rp2113
ag1
(g5
S'\xa8\xea\xf0>'
p2114
tp2115
Rp2116
ag1
(g5
S'\xc7\xc5[<'
p2117
tp2118
Rp2119
ag1
(g5
S'\x9d\xbbT<'
p2120
tp2121
Rp2122
ag1
(g5
S'\xe6\x9b\x07<'
p2123
tp2124
Rp2125
ag1
(g5
S'\x8c\x96\xde;'
p2126
tp2127
Rp2128
ag1
(g5
S'\x87\xab\x82<'
p2129
tp2130
Rp2131
ag1
(g5
S'e|\x85;'
p2132
tp2133
Rp2134
ag1
(g5
S'\xe6\re<'
p2135
tp2136
Rp2137
ag1
(g5
S'\xe1TO<'
p2138
tp2139
Rp2140
ag1
(g5
S'\xedSt='
p2141
tp2142
Rp2143
ag1
(g5
S'f\xd7\xc3<'
p2144
tp2145
Rp2146
ag1
(g5
S'\xa3\x15\xdd;'
p2147
tp2148
Rp2149
ag1
(g5
S'\x1f\x81\xb5;'
p2150
tp2151
Rp2152
ag1
(g5
S'\xb9s2<'
p2153
tp2154
Rp2155
ag1
(g5
S'\x12\x0b\xe7<'
p2156
tp2157
Rp2158
ag1
(g5
S'\xf3\xd1\x94<'
p2159
tp2160
Rp2161
ag1
(g5
S'.\xbc(;'
p2162
tp2163
Rp2164
ag1
(g5
S'\x9f33='
p2165
tp2166
Rp2167
ag1
(g5
S'\x84\x8a\x8f='
p2168
tp2169
Rp2170
ag1
(g5
S'\x83\n\xe7;'
p2171
tp2172
Rp2173
ag1
(g5
S'R\xf9\x14>'
p2174
tp2175
Rp2176
ag1
(g5
S'\xfb\xb0\x0c='
p2177
tp2178
Rp2179
ag1
(g5
S'V\xb4C<'
p2180
tp2181
Rp2182
ag1
(g5
S'87d<'
p2183
tp2184
Rp2185
ag1
(g5
S'\xc1\x8bi;'
p2186
tp2187
Rp2188
ag1
(g5
S'\n\x91n;'
p2189
tp2190
Rp2191
ag1
(g5
S'\xd6|\x13<'
p2192
tp2193
Rp2194
ag1
(g5
S'w\xda\xaf;'
p2195
tp2196
Rp2197
ag1
(g5
S'\x12M\xef;'
p2198
tp2199
Rp2200
ag1
(g5
S'\x11\xe8\x93;'
p2201
tp2202
Rp2203
ag1
(g5
S'l\xfav='
p2204
tp2205
Rp2206
ag1
(g5
S'g\\\x01<'
p2207
tp2208
Rp2209
ag1
(g5
S'LI\x14<'
p2210
tp2211
Rp2212
ag1
(g5
S'\xa7\x0f\xce;'
p2213
tp2214
Rp2215
ag1
(g5
S'm\x19\xc0;'
p2216
tp2217
Rp2218
ag1
(g5
S'L\xb4\xda;'
p2219
tp2220
Rp2221
ag1
(g5
S'\xf5\xc4\x87;'
p2222
tp2223
Rp2224
ag1
(g5
S'\xe5\x16\xf9<'
p2225
tp2226
Rp2227
ag1
(g5
S'\xce\x9b\x80<'
p2228
tp2229
Rp2230
ag1
(g5
S'L\xb4\xda;'
p2231
tp2232
Rp2233
ag1
(g5
S'\xc1\x94\xcf;'
p2234
tp2235
Rp2236
ag1
(g5
S'\x1f\xe4\x17='
p2237
tp2238
Rp2239
ag1
(g5
S'\xd8c"='
p2240
tp2241
Rp2242
ag1
(g5
S'm\xa9\x98<'
p2243
tp2244
Rp2245
ag1
(g5
S'\xf23\x81;'
p2246
tp2247
Rp2248
ag1
(g5
S'\xd8\x91\x84='
p2249
tp2250
Rp2251
ag1
(g5
S'-\x0c!='
p2252
tp2253
Rp2254
ag1
(g5
S'l\xdd\x17<'
p2255
tp2256
Rp2257
ag1
(g5
S'\xa1\xaa\xc7<'
p2258
tp2259
Rp2260
ag1
(g5
S'\xab(\x96;'
p2261
tp2262
Rp2263
ag1
(g5
S'\xad\x80W;'
p2264
tp2265
Rp2266
ag1
(g5
S'W\x1f\x90='
p2267
tp2268
Rp2269
ag1
(g5
S'\x10(l<'
p2270
tp2271
Rp2272
ag1
(g5
S'\xb1g\x1e='
p2273
tp2274
Rp2275
ag1
(g5
S'"\xee\xad;'
p2276
tp2277
Rp2278
ag1
(g5
S'\xf2\x18`<'
p2279
tp2280
Rp2281
ag1
(g5
S'+\xbe\x10='
p2282
tp2283
Rp2284
ag1
(g5
S'c\x1a\x98;'
p2285
tp2286
Rp2287
ag1
(g5
S'Rg\x89='
p2288
tp2289
Rp2290
ag1
(g5
S'R/m='
p2291
tp2292
Rp2293
ag1
(g5
S'9@\xaa<'
p2294
tp2295
Rp2296
ag1
(g5
S'L\xb8\x0e='
p2297
tp2298
Rp2299
ag1
(g5
S'\x03x\x9e;'
p2300
tp2301
Rp2302
ag1
(g5
S'4\xe9\x85<'
p2303
tp2304
Rp2305
ag1
(g5
S'\x1b\xbc\xc0;'
p2306
tp2307
Rp2308
ag1
(g5
S'\xa4p\xc2='
p2309
tp2310
Rp2311
ag1
(g5
S'\xcch\xba;'
p2312
tp2313
Rp2314
ag1
(g5
S'"%\x96<'
p2315
tp2316
Rp2317
ag1
(g5
S'rj\x01<'
p2318
tp2319
Rp2320
ag1
(g5
S'\xda^\xc0<'
p2321
tp2322
Rp2323
ag1
(g5
S'\x87-Z<'
p2324
tp2325
Rp2326
ag1
(g5
S'\xc0`\x04='
p2327
tp2328
Rp2329
ag1
(g5
S'\xdb\xfb\xe4<'
p2330
tp2331
Rp2332
ag1
(g5
S'\xc4\x89\xc9;'
p2333
tp2334
Rp2335
ag1
(g5
S'\xdd\xa9\x7f;'
p2336
tp2337
Rp2338
ag1
(g5
S'0\x87\x1b='
p2339
tp2340
Rp2341
ag1
(g5
S'\x8d\xff\xba<'
p2342
tp2343
Rp2344
ag1
(g5
S'\xa6\xc6\xbc<'
p2345
tp2346
Rp2347
ag1
(g5
S'\x91\xa8];'
p2348
tp2349
Rp2350
ag1
(g5
S'\xf5;n<'
p2351
tp2352
Rp2353
ag1
(g5
S'\x1a\xa6\x9b='
p2354
tp2355
Rp2356
ag1
(g5
S'\xf2\xaa\xb6;'
p2357
tp2358
Rp2359
ag1
(g5
S'\x8c\x8cD='
p2360
tp2361
Rp2362
ag1
(g5
S'B\xa1\xcb;'
p2363
tp2364
Rp2365
ag1
(g5
S'\x01\xe2\x8b;'
p2366
tp2367
Rp2368
ag1
(g5
S'd\x98\x98;'
p2369
tp2370
Rp2371
ag1
(g5
S'l\x15\xaf='
p2372
tp2373
Rp2374
ag1
(g5
S'N\xd2:;'
p2375
tp2376
Rp2377
ag1
(g5
S'\xeb\xec\xdb='
p2378
tp2379
Rp2380
ag1
(g5
S'\x8a/\xa3<'
p2381
tp2382
Rp2383
ag1
(g5
S'\x13\xa2\r<'
p2384
tp2385
Rp2386
ag1
(g5
S'\x17\x88"='
p2387
tp2388
Rp2389
ag1
(g5
S'\x11\xd0.='
p2390
tp2391
Rp2392
ag1
(g5
S'|\x05\xbb;'
p2393
tp2394
Rp2395
ag1
(g5
S'EW];'
p2396
tp2397
Rp2398
ag1
(g5
S'w\x96\x07='
p2399
tp2400
Rp2401
ag1
(g5
S'\xc2\xe2\xb4='
p2402
tp2403
Rp2404
ag1
(g5
S'-)&>'
p2405
tp2406
Rp2407
ag1
(g5
S'\xb8R\x98;'
p2408
tp2409
Rp2410
ag1
(g5
S'%\xe3{;'
p2411
tp2412
Rp2413
ag1
(g5
S'\x96\x93\x04<'
p2414
tp2415
Rp2416
ag1
(g5
S'\xd4[\x80;'
p2417
tp2418
Rp2419
ag1
(g5
S'\xf6\xe8s<'
p2420
tp2421
Rp2422
ag1
(g5
S'h9\x01<'
p2423
tp2424
Rp2425
ag1
(g5
S'\xca\x17\xfd;'
p2426
tp2427
Rp2428
ag1
(g5
S'\x1a8!='
p2429
tp2430
Rp2431
ag1
(g5
S'\x17^\x08<'
p2432
tp2433
Rp2434
ag1
(g5
S'\x90vT='
p2435
tp2436
Rp2437
ag1
(g5
S'\xe9\xcb\x08='
p2438
tp2439
Rp2440
ag1
(g5
S'\x15\x7f\xd1;'
p2441
tp2442
Rp2443
ag1
(g5
S'\xe3\xc4\x8b;'
p2444
tp2445
Rp2446
ag1
(g5
S'\x14\x1b\xea<'
p2447
tp2448
Rp2449
ag1
(g5
S'=J\r<'
p2450
tp2451
Rp2452
ag1
(g5
S'Q16;'
p2453
tp2454
Rp2455
ag1
(g5
S'\xe4L\x14='
p2456
tp2457
Rp2458
ag1
(g5
S'\x16\x8d\x1c;'
p2459
tp2460
Rp2461
ag1
(g5
S'\xf4\x8f\xa5='
p2462
tp2463
Rp2464
ag1
(g5
S'\xd6w\xf4<'
p2465
tp2466
Rp2467
ag1
(g5
S'\x85\xea\xed;'
p2468
tp2469
Rp2470
ag1
(g5
S'`\xa8\xb0;'
p2471
tp2472
Rp2473
ag1
(g5
S'\xeel\x93<'
p2474
tp2475
Rp2476
ag1
(g5
S'\xe5\xc1\x0f<'
p2477
tp2478
Rp2479
ag1
(g5
S':}{<'
p2480
tp2481
Rp2482
ag1
(g5
S'7o\xb2<'
p2483
tp2484
Rp2485
ag1
(g5
S'\xf3Q\xcb;'
p2486
tp2487
Rp2488
ag1
(g5
S'\xff\xefx='
p2489
tp2490
Rp2491
ag1
(g5
S'\xc0M\xfa;'
p2492
tp2493
Rp2494
ag1
(g5
S'\x05?\x9a;'
p2495
tp2496
Rp2497
ag1
(g5
S'\xe5\t\xe8;'
p2498
tp2499
Rp2500
ag1
(g5
S'\x96\xe4\xd1;'
p2501
tp2502
Rp2503
ag1
(g5
S'\x84s\xbc;'
p2504
tp2505
Rp2506
ag1
(g5
S'J\xe6\x92<'
p2507
tp2508
Rp2509
ag1
(g5
S'\x19\xba\xc6<'
p2510
tp2511
Rp2512
ag1
(g5
S'\x91G0;'
p2513
tp2514
Rp2515
ag1
(g5
S'\xa4\xa5\xa1<'
p2516
tp2517
Rp2518
ag1
(g5
S'\x97=\xc1;'
p2519
tp2520
Rp2521
ag1
(g5
S'\xdb\xd5\xf5;'
p2522
tp2523
Rp2524
ag1
(g5
S'\xeaDs;'
p2525
tp2526
Rp2527
ag1
(g5
S'\xaa_\xb7<'
p2528
tp2529
Rp2530
ag1
(g5
S'I\xf9\x19;'
p2531
tp2532
Rp2533
ag1
(g5
S'8t\xa4;'
p2534
tp2535
Rp2536
ag1
(g5
S'\x10E\x9f;'
p2537
tp2538
Rp2539
ag1
(g5
S'2\x8e\x80<'
p2540
tp2541
Rp2542
ag1
(g5
S'\x86\x9f\xf4<'
p2543
tp2544
Rp2545
ag1
(g5
S'-\x9e4;'
p2546
tp2547
Rp2548
ag1
(g5
S'rFq<'
p2549
tp2550
Rp2551
ag1
(g5
S'\x9f\xf4[<'
p2552
tp2553
Rp2554
ag1
(g5
S'\x95!\xdd<'
p2555
tp2556
Rp2557
ag1
(g5
S'*\xc7<='
p2558
tp2559
Rp2560
ag1
(g5
S'\xad\x0c\xcd;'
p2561
tp2562
Rp2563
ag1
(g5
S')\xceY<'
p2564
tp2565
Rp2566
ag1
(g5
S'n\xa4;;'
p2567
tp2568
Rp2569
ag1
(g5
S'\xa5\xceG;'
p2570
tp2571
Rp2572
ag1
(g5
S':s\x1d='
p2573
tp2574
Rp2575
ag1
(g5
S'BB\xc3<'
p2576
tp2577
Rp2578
ag1
(g5
S'\xfa\x98\x18='
p2579
tp2580
Rp2581
ag1
(g5
S'\x04\x81!='
p2582
tp2583
Rp2584
ag1
(g5
S'q\x04\x8a<'
p2585
tp2586
Rp2587
ag1
(g5
S'\x05[\xa4<'
p2588
tp2589
Rp2590
ag1
(g5
S'\xc5\x85\x05='
p2591
tp2592
Rp2593
ag1
(g5
S'8\x83\xb3='
p2594
tp2595
Rp2596
ag1
(g5
S'6\x1c\x83<'
p2597
tp2598
Rp2599
ag1
(g5
S'Z\x80_<'
p2600
tp2601
Rp2602
ag1
(g5
S'\xa3\xe1\xf3<'
p2603
tp2604
Rp2605
ag1
(g5
S')\xfcz<'
p2606
tp2607
Rp2608
ag1
(g5
S'W\x1a\xea;'
p2609
tp2610
Rp2611
ag1
(g5
S'\xb7\x1a\xcb<'
p2612
tp2613
Rp2614
ag1
(g5
S'h;\x00='
p2615
tp2616
Rp2617
ag1
(g5
S'\nB\xe2;'
p2618
tp2619
Rp2620
ag1
(g5
S'\xdd\x9c\x1a='
p2621
tp2622
Rp2623
ag1
(g5
S')N\xe5<'
p2624
tp2625
Rp2626
ag1
(g5
S'\x0b?\x89<'
p2627
tp2628
Rp2629
ag1
(g5
S'\xddq\xa4;'
p2630
tp2631
Rp2632
ag1
(g5
S'\x10\x9b7='
p2633
tp2634
Rp2635
ag1
(g5
S'\x14\x1f\x93;'
p2636
tp2637
Rp2638
ag1
(g5
S'\x86\x06 <'
p2639
tp2640
Rp2641
ag1
(g5
S'\xe0\x98\xc3;'
p2642
tp2643
Rp2644
ag1
(g5
S'\x90\xb6\x8a<'
p2645
tp2646
Rp2647
ag1
(g5
S'\x95\xf2];'
p2648
tp2649
Rp2650
ag1
(g5
S'\xfe\x04\x15='
p2651
tp2652
Rp2653
ag1
(g5
S'\xe1E`='
p2654
tp2655
Rp2656
ag1
(g5
S'\xa3K~;'
p2657
tp2658
Rp2659
ag1
(g5
S'\xcd\xa1\x06='
p2660
tp2661
Rp2662
ag1
(g5
S'\xd8\xbb\x12='
p2663
tp2664
Rp2665
ag1
(g5
S'\x11-\x13='
p2666
tp2667
Rp2668
ag1
(g5
S'\x85A\x84<'
p2669
tp2670
Rp2671
ag1
(g5
S'8q\x98='
p2672
tp2673
Rp2674
ag1
(g5
S'e~\xb5<'
p2675
tp2676
Rp2677
ag1
(g5
S'\x07\xa5\xa8<'
p2678
tp2679
Rp2680
ag1
(g5
S'B\x12f<'
p2681
tp2682
Rp2683
ag1
(g5
S'\xd2q\x8a;'
p2684
tp2685
Rp2686
ag1
(g5
S'C\xd3\x85<'
p2687
tp2688
Rp2689
a.