(lp0
cnumpy.core.multiarray
scalar
p1
(cnumpy
dtype
p2
(S'f4'
p3
I0
I1
tp4
Rp5
(I3
S'<'
p6
NNNI-1
I-1
I0
tp7
bS'\xc2\xab\xb1;'
p8
tp9
Rp10
ag1
(g5
S'\xe1\x86\x13='
p11
tp12
Rp13
ag1
(g5
S'jK\x14<'
p14
tp15
Rp16
ag1
(g5
S'j\x8dB='
p17
tp18
Rp19
ag1
(g5
S'%\x86r;'
p20
tp21
Rp22
ag1
(g5
S'9\xb3e;'
p23
tp24
Rp25
ag1
(g5
S'@\xd6\xda<'
p26
tp27
Rp28
ag1
(g5
S'\x03\xae\xaf;'
p29
tp30
Rp31
ag1
(g5
S'=|\x16<'
p32
tp33
Rp34
ag1
(g5
S'\xc5\xe0\xac;'
p35
tp36
Rp37
ag1
(g5
S'\x81d\x06<'
p38
tp39
Rp40
ag1
(g5
S'u\x9c\xf9<'
p41
tp42
Rp43
ag1
(g5
S'A(\xd9;'
p44
tp45
Rp46
ag1
(g5
S'+\x1b\x9a<'
p47
tp48
Rp49
ag1
(g5
S'\r*\xad;'
p50
tp51
Rp52
ag1
(g5
S'\xd0\x15\xc6;'
p53
tp54
Rp55
ag1
(g5
S'\xa2\x00R;'
p56
tp57
Rp58
ag1
(g5
S'\x99\xf5\xc1<'
p59
tp60
Rp61
ag1
(g5
S'H\x80\xb8;'
p62
tp63
Rp64
ag1
(g5
S'\x82h\xec='
p65
tp66
Rp67
ag1
(g5
S':=m;'
p68
tp69
Rp70
ag1
(g5
S'\xf0\xea\x11;'
p71
tp72
Rp73
ag1
(g5
S'd\xe2\xae<'
p74
tp75
Rp76
ag1
(g5
S'\xab\xcd\xcf<'
p77
tp78
Rp79
ag1
(g5
S'\xc7h:<'
p80
tp81
Rp82
ag1
(g5
S'\xbez\xa3;'
p83
tp84
Rp85
ag1
(g5
S'k\x8b\xa7<'
p86
tp87
Rp88
ag1
(g5
S'\x14\xe0\xb0<'
p89
tp90
Rp91
ag1
(g5
S'\xdfs\x8f;'
p92
tp93
Rp94
ag1
(g5
S'\x9bV\xac;'
p95
tp96
Rp97
ag1
(g5
S'\xc2\xf0\xc0;'
p98
tp99
Rp100
ag1
(g5
S'{\xd3@<'
p101
tp102
Rp103
ag1
(g5
S'\xbe\x8d\x0c='
p104
tp105
Rp106
ag1
(g5
S'~a\xa8<'
p107
tp108
Rp109
ag1
(g5
S'\xfer\x00='
p110
tp111
Rp112
ag1
(g5
S'UA\x8a<'
p113
tp114
Rp115
ag1
(g5
S'@V\xbd;'
p116
tp117
Rp118
ag1
(g5
S'\xba\xd0,<'
p119
tp120
Rp121
ag1
(g5
S'\xcb\xf3.<'
p122
tp123
Rp124
ag1
(g5
S'9(\xbe;'
p125
tp126
Rp127
ag1
(g5
S'`2\xae;'
p128
tp129
Rp130
ag1
(g5
S'\x1c^\x80;'
p131
tp132
Rp133
ag1
(g5
S'\xec\xd7\xad;'
p134
tp135
Rp136
ag1
(g5
S'\x1bmL<'
p137
tp138
Rp139
ag1
(g5
S'E1U;'
p140
tp141
Rp142
ag1
(g5
S'M%!='
p143
tp144
Rp145
ag1
(g5
S'\xa4\x1a\xb6;'
p146
tp147
Rp148
ag1
(g5
S'8\xc2R<'
p149
tp150
Rp151
ag1
(g5
S'\x12O\xaa;'
p152
tp153
Rp154
ag1
(g5
S'\xd3F\x1d<'
p155
tp156
Rp157
ag1
(g5
S'\x185\xe3;'
p158
tp159
Rp160
ag1
(g5
S'\xcf\x8bT<'
p161
tp162
Rp163
ag1
(g5
S'K\xa5\xb7;'
p164
tp165
Rp166
ag1
(g5
S'\xd2g\xe4<'
p167
tp168
Rp169
ag1
(g5
S'\xbf"Y<'
p170
tp171
Rp172
ag1
(g5
S'\x01\x07\x9c;'
p173
tp174
Rp175
ag1
(g5
S';B\xe2;'
p176
tp177
Rp178
ag1
(g5
S'\xf6%\xe7<'
p179
tp180
Rp181
ag1
(g5
S'u\x0c\x02<'
p182
tp183
Rp184
ag1
(g5
S'7x\x0f<'
p185
tp186
Rp187
ag1
(g5
S'q*.<'
p188
tp189
Rp190
ag1
(g5
S'vI%<'
p191
tp192
Rp193
ag1
(g5
S'Z\x1aY;'
p194
tp195
Rp196
ag1
(g5
S'^\xce\x98<'
p197
tp198
Rp199
ag1
(g5
S'i\xf26<'
p200
tp201
Rp202
ag1
(g5
S'\x9b\x91\xed;'
p203
tp204
Rp205
ag1
(g5
S'q\x92\xf6='
p206
tp207
Rp208
ag1
(g5
S'X.P='
p209
tp210
Rp211
ag1
(g5
S'\n\xaf\x08<'
p212
tp213
Rp214
ag1
(g5
S'\xb1>\xb0='
p215
tp216
Rp217
ag1
(g5
S'\x81\xa2\x91<'
p218
tp219
Rp220
ag1
(g5
S'p3B;'
p221
tp222
Rp223
ag1
(g5
S'6_\n='
p224
tp225
Rp226
ag1
(g5
S'*\xc5\x03<'
p227
tp228
Rp229
ag1
(g5
S'\x16\xe7\x8b;'
p230
tp231
Rp232
ag1
(g5
S'\r\x0e\xd0;'
p233
tp234
Rp235
ag1
(g5
S'\x92 e<'
p236
tp237
Rp238
ag1
(g5
S'\x0b*u;'
p239
tp240
Rp241
ag1
(g5
S'^\xb3\x99<'
p242
tp243
Rp244
ag1
(g5
S'\x8df\x90;'
p245
tp246
Rp247
ag1
(g5
S'\\?\xa7;'
p248
tp249
Rp250
ag1
(g5
S'\xfc\x88\x87<'
p251
tp252
Rp253
ag1
(g5
S'OO\x9c;'
p254
tp255
Rp256
ag1
(g5
S'\x85\x0e\xd9<'
p257
tp258
Rp259
ag1
(g5
S'RK\xcc<'
p260
tp261
Rp262
ag1
(g5
S'\xc9\xf0z='
p263
tp264
Rp265
ag1
(g5
S'\x05\x84\xa2>'
p266
tp267
Rp268
ag1
(g5
S'H\xe5\x04<'
p269
tp270
Rp271
ag1
(g5
S'J\x7f5<'
p272
tp273
Rp274
ag1
(g5
S'\x03K\xb3;'
p275
tp276
Rp277
ag1
(g5
S'D\x88\xa0<'
p278
tp279
Rp280
ag1
(g5
S']ur;'
p281
tp282
Rp283
ag1
(g5
S'\x84\xde\xa1='
p284
tp285
Rp286
ag1
(g5
S'\xfd\x0f\x0c='
p287
tp288
Rp289
ag1
(g5
S'7\xe1\xab;'
p290
tp291
Rp292
ag1
(g5
S'PN\xac='
p293
tp294
Rp295
ag1
(g5
S'\xcd\x14\xa6;'
p296
tp297
Rp298
ag1
(g5
S'\x89/Q;'
p299
tp300
Rp301
ag1
(g5
S'\x93\xaf.='
p302
tp303
Rp304
ag1
(g5
S'\xc9\xbb#;'
p305
tp306
Rp307
ag1
(g5
S'xo\xd6;'
p308
tp309
Rp310
ag1
(g5
S'\xab\xea\xdf;'
p311
tp312
Rp313
ag1
(g5
S'\xc5r\xaf<'
p314
tp315
Rp316
ag1
(g5
S'\xb9q\xdf;'
p317
tp318
Rp319
ag1
(g5
S'\xe1\xbb\x18>'
p320
tp321
Rp322
ag1
(g5
S'\xb2I\x04<'
p323
tp324
Rp325
ag1
(g5
S'\xca\xde\xba<'
p326
tp327
Rp328
ag1
(g5
S'\xb4\xdb\x88<'
p329
tp330
Rp331
ag1
(g5
S'\xfco\x1a='
p332
tp333
Rp334
ag1
(g5
S'U\xf9K='
p335
tp336
Rp337
ag1
(g5
S'"\xb3\x13<'
p338
tp339
Rp340
ag1
(g5
S'8\x8c-;'
p341
tp342
Rp343
ag1
(g5
S'\xdb+\x91;'
p344
tp345
Rp346
ag1
(g5
S'\x19\x03\xd5;'
p347
tp348
Rp349
ag1
(g5
S't\x14*;'
p350
tp351
Rp352
ag1
(g5
S'\xa8\xa6m='
p353
tp354
Rp355
ag1
(g5
S'\xcf\x06\xcd;'
p356
tp357
Rp358
ag1
(g5
S'a9\xf6<'
p359
tp360
Rp361
ag1
(g5
S'\x95H\xa2<'
p362
tp363
Rp364
ag1
(g5
S'\xf0\xf1\xa6<'
p365
tp366
Rp367
ag1
(g5
S'\xadI\x8b;'
p368
tp369
Rp370
ag1
(g5
S't\xcc\x93<'
p371
tp372
Rp373
ag1
(g5
S'\x15\xf7\xc0;'
p374
tp375
Rp376
ag1
(g5
S'\t\x80\x1a<'
p377
tp378
Rp379
ag1
(g5
S'\xff\xbe\x89;'
p380
tp381
Rp382
ag1
(g5
S'`\xc01<'
p383
tp384
Rp385
ag1
(g5
S'\xb9\x12q<'
p386
tp387
Rp388
ag1
(g5
S'\xb5\xb6t='
p389
tp390
Rp391
ag1
(g5
S'g\xa4G<'
p392
tp393
Rp394
ag1
(g5
S'\x12\xc0\xcb<'
p395
tp396
Rp397
ag1
(g5
S'\xb0\xd8\x9e;'
p398
tp399
Rp400
ag1
(g5
S',\xbb\xa7='
p401
tp402
Rp403
ag1
(g5
S'\xdc\xa4\x0f='
p404
tp405
Rp406
ag1
(g5
S'\x81\xdf\x05<'
p407
tp408
Rp409
ag1
(g5
S'e+\x1e<'
p410
tp411
Rp412
ag1
(g5
S'\xbfm\x8b<'
p413
tp414
Rp415
ag1
(g5
S'`.\x00='
p416
tp417
Rp418
ag1
(g5
S'\xba\xfd*>'
p419
tp420
Rp421
ag1
(g5
S'\x11\x7fV;'
p422
tp423
Rp424
ag1
(g5
S'\x9fS\xa0;'
p425
tp426
Rp427
ag1
(g5
S'\xbe\xa1\xa6;'
p428
tp429
Rp430
ag1
(g5
S'-\xda\x03='
p431
tp432
Rp433
ag1
(g5
S'\x1b\x90\x91<'
p434
tp435
Rp436
ag1
(g5
S'\xa8\xeah<'
p437
tp438
Rp439
ag1
(g5
S'\x98\x1ey<'
p440
tp441
Rp442
ag1
(g5
S'\x95\x04\xcc;'
p443
tp444
Rp445
ag1
(g5
S'\x13T\x85;'
p446
tp447
Rp448
ag1
(g5
S'>Q<<'
p449
tp450
Rp451
ag1
(g5
S'~\x922;'
p452
tp453
Rp454
ag1
(g5
S'\x05\xa7C>'
p455
tp456
Rp457
ag1
(g5
S'OO\x9c;'
p458
tp459
Rp460
ag1
(g5
S'\xd0\x0b\xfd;'
p461
tp462
Rp463
ag1
(g5
S'_M<;'
p464
tp465
Rp466
ag1
(g5
S'\xc5!\x91<'
p467
tp468
Rp469
ag1
(g5
S'\x80=S;'
p470
tp471
Rp472
ag1
(g5
S'9}\xa9;'
p473
tp474
Rp475
ag1
(g5
S'En\xc4;'
p476
tp477
Rp478
ag1
(g5
S'q\xe9\x9b;'
p479
tp480
Rp481
ag1
(g5
S'\x1f\x84\xea;'
p482
tp483
Rp484
ag1
(g5
S'\x15v\x06='
p485
tp486
Rp487
ag1
(g5
S'\xeds\x02<'
p488
tp489
Rp490
ag1
(g5
S'\xa3\xd6,<'
p491
tp492
Rp493
ag1
(g5
S'\x1eh\xaa<'
p494
tp495
Rp496
ag1
(g5
S'\x8f+\x81;'
p497
tp498
Rp499
ag1
(g5
S'\x17@\x1e='
p500
tp501
Rp502
ag1
(g5
S'\x9b\x16\x00<'
p503
tp504
Rp505
ag1
(g5
S'K\xd0O='
p506
tp507
Rp508
ag1
(g5
S'T\x13\x10='
p509
tp510
Rp511
ag1
(g5
S'n\xef\xc1<'
p512
tp513
Rp514
ag1
(g5
S')\xa8!<'
p515
tp516
Rp517
ag1
(g5
S'\xc4\xea\x9d<'
p518
tp519
Rp520
ag1
(g5
S'\xbc\xf8\x91;'
p521
tp522
Rp523
ag1
(g5
S'v\x8f\n<'
p524
tp525
Rp526
ag1
(g5
S'\xd6\xf7I;'
p527
tp528
Rp529
ag1
(g5
S'\xe0\x1c\x8e<'
p530
tp531
Rp532
ag1
(g5
S'6\x87\xd8<'
p533
tp534
Rp535
ag1
(g5
S'\x13F\xc8;'
p536
tp537
Rp538
ag1
(g5
S'W\xfd\xb5<'
p539
tp540
Rp541
ag1
(g5
S'\xa7\x03\xf8<'
p542
tp543
Rp544
ag1
(g5
S'>\x97\x19='
p545
tp546
Rp547
ag1
(g5
S'\x05K\x17<'
p548
tp549
Rp550
ag1
(g5
S'l\xcb\x1c>'
p551
tp552
Rp553
ag1
(g5
S'{2#<'
p554
tp555
Rp556
ag1
(g5
S'RQ\x8d<'
p557
tp558
Rp559
ag1
(g5
S'\xf7MF<'
p560
tp561
Rp562
ag1
(g5
S'V2\xff;'
p563
tp564
Rp565
ag1
(g5
S'\x94\xf4)='
p566
tp567
Rp568
ag1
(g5
S'\xd7M\xcb<'
p569
tp570
Rp571
ag1
(g5
S'\xcd\xdd\x9a='
p572
tp573
Rp574
ag1
(g5
S'\xde>R='
p575
tp576
Rp577
ag1
(g5
S'\xce\xd9V;'
p578
tp579
Rp580
ag1
(g5
S'6\xca\xfa<'
p581
tp582
Rp583
ag1
(g5
S'\x14lN='
p584
tp585
Rp586
ag1
(g5
S'\xff\x11\x10='
p587
tp588
Rp589
ag1
(g5
S'j\xa8\x08>'
p590
tp591
Rp592
ag1
(g5
S'!@\xb9<'
p593
tp594
Rp595
ag1
(g5
S'4\x9f$='
p596
tp597
Rp598
ag1
(g5
S'\xa1\x80\x9f='
p599
tp600
Rp601
ag1
(g5
S'f\xb0\t<'
p602
tp603
Rp604
ag1
(g5
S'^\x86\x0f<'
p605
tp606
Rp607
ag1
(g5
S'z!\x96='
p608
tp609
Rp610
ag1
(g5
S'\xa6\xe9\x84;'
p611
tp612
Rp613
ag1
(g5
S'\xe9\x16#;'
p614
tp615
Rp616
ag1
(g5
S'q\x95O='
p617
tp618
Rp619
ag1
(g5
S'\xd5T\xaf;'
p620
tp621
Rp622
ag1
(g5
S'l\xc7\x9f;'
p623
tp624
Rp625
ag1
(g5
S'\\\xa3\xe0='
p626
tp627
Rp628
ag1
(g5
S'\xf2\xae,<'
p629
tp630
Rp631
ag1
(g5
S'\x9a\x80\x04='
p632
tp633
Rp634
ag1
(g5
S'C\xd1u;'
p635
tp636
Rp637
ag1
(g5
S'?4\x02='
p638
tp639
Rp640
ag1
(g5
S'\xf4\xb6\x9e<'
p641
tp642
Rp643
ag1
(g5
S'\xa9a\xb7;'
p644
tp645
Rp646
ag1
(g5
S'\xc8q\xba;'
p647
tp648
Rp649
ag1
(g5
S'\xadu\t='
p650
tp651
Rp652
ag1
(g5
S'Y`Q>'
p653
tp654
Rp655
ag1
(g5
S'\x99\xa7H<'
p656
tp657
Rp658
ag1
(g5
S'\xdc!\xfc='
p659
tp660
Rp661
ag1
(g5
S'\xb2y%;'
p662
tp663
Rp664
ag1
(g5
S'Z\xd0+<'
p665
tp666
Rp667
ag1
(g5
S'N\x83\xdf;'
p668
tp669
Rp670
ag1
(g5
S'\xd5\xb0!<'
p671
tp672
Rp673
ag1
(g5
S'\xa0<\xf2<'
p674
tp675
Rp676
ag1
(g5
S'a\xf4\x8d;'
p677
tp678
Rp679
ag1
(g5
S'A;\x1a<'
p680
tp681
Rp682
ag1
(g5
S'\x10\xf8\xa3;'
p683
tp684
Rp685
ag1
(g5
S'\xa2\x07]<'
p686
tp687
Rp688
ag1
(g5
S'\x1a\xe2\xd5;'
p689
tp690
Rp691
ag1
(g5
S'\xdf&\xb3;'
p692
tp693
Rp694
ag1
(g5
S'n\xdf\x02<'
p695
tp696
Rp697
ag1
(g5
S'\xa6\x7f\x80<'
p698
tp699
Rp700
ag1
(g5
S'J\xca\x87<'
p701
tp702
Rp703
ag1
(g5
S'\xff>\xb6;'
p704
tp705
Rp706
ag1
(g5
S't\xee\xdc<'
p707
tp708
Rp709
ag1
(g5
S']\x8e\xb3;'
p710
tp711
Rp712
ag1
(g5
S'ou\x00<'
p713
tp714
Rp715
ag1
(g5
S'\xa2\xc5\xbe;'
p716
tp717
Rp718
ag1
(g5
S'\xd8}\xb9<'
p719
tp720
Rp721
ag1
(g5
S'\xb1n\x11<'
p722
tp723
Rp724
ag1
(g5
S'\x92\xd8z;'
p725
tp726
Rp727
ag1
(g5
S'\x0c0\xe7;'
p728
tp729
Rp730
ag1
(g5
S'\x1f5v<'
p731
tp732
Rp733
ag1
(g5
S'.N\x15='
p734
tp735
Rp736
ag1
(g5
S'\xcf\xfe\xa4;'
p737
tp738
Rp739
ag1
(g5
S'\xc9R\x93;'
p740
tp741
Rp742
ag1
(g5
S'\xc9\x0f\x00='
p743
tp744
Rp745
ag1
(g5
S'1ab='
p746
tp747
Rp748
ag1
(g5
S'o!\xd0<'
p749
tp750
Rp751
ag1
(g5
S'Z\xbcg;'
p752
tp753
Rp754
ag1
(g5
S'\xcb\x8d,<'
p755
tp756
Rp757
ag1
(g5
S'\xce\xdf\x00<'
p758
tp759
Rp760
ag1
(g5
S'\x16\x8b\xf5;'
p761
tp762
Rp763
ag1
(g5
S'M:6;'
p764
tp765
Rp766
ag1
(g5
S'\xd3/B='
p767
tp768
Rp769
ag1
(g5
S'Fu\xa2;'
p770
tp771
Rp772
ag1
(g5
S'["\x8d;'
p773
tp774
Rp775
ag1
(g5
S'\x9d\xa7b<'
p776
tp777
Rp778
ag1
(g5
S'C8\\<'
p779
tp780
Rp781
ag1
(g5
S'"\x91\x0b='
p782
tp783
Rp784
ag1
(g5
S'f\xda\\<'
p785
tp786
Rp787
ag1
(g5
S'\xff\x11<<'
p788
tp789
Rp790
ag1
(g5
S'\x11\x84\xb7;'
p791
tp792
Rp793
ag1
(g5
S'\xfa\x1d\x9e;'
p794
tp795
Rp796
ag1
(g5
S'\xf70E;'
p797
tp798
Rp799
ag1
(g5
S'\xff\x93\\;'
p800
tp801
Rp802
ag1
(g5
S'V\xaf1<'
p803
tp804
Rp805
ag1
(g5
S'\x95#(;'
p806
tp807
Rp808
ag1
(g5
S'\x0f\xc1\x9d;'
p809
tp810
Rp811
ag1
(g5
S'\xe4`\xc7<'
p812
tp813
Rp814
ag1
(g5
S'U5\xb4<'
p815
tp816
Rp817
ag1
(g5
S'\xe8\xcc\x04='
p818
tp819
Rp820
ag1
(g5
S'e\x7f\x03<'
p821
tp822
Rp823
ag1
(g5
S'\xa2N\x83;'
p824
tp825
Rp826
ag1
(g5
S'\xe6\xa6#;'
p827
tp828
Rp829
ag1
(g5
S'~\\{='
p830
tp831
Rp832
ag1
(g5
S'&P\xae;'
p833
tp834
Rp835
ag1
(g5
S'\x8a\xe5\xe3='
p836
tp837
Rp838
ag1
(g5
S"\xa7\xf1'="
p839
tp840
Rp841
ag1
(g5
S':\xa9\xc7;'
p842
tp843
Rp844
ag1
(g5
S'F\x8a\xc6;'
p845
tp846
Rp847
ag1
(g5
S'kl4;'
p848
tp849
Rp850
ag1
(g5
S'\xe9\x16#;'
p851
tp852
Rp853
ag1
(g5
S'\xaa\x9d\x8d;'
p854
tp855
Rp856
ag1
(g5
S'\xa3\xea\xa2<'
p857
tp858
Rp859
ag1
(g5
S'D\xf3^;'
p860
tp861
Rp862
ag1
(g5
S'\x13T\x85;'
p863
tp864
Rp865
ag1
(g5
S'P\x8c\x92;'
p866
tp867
Rp868
ag1
(g5
S'h\xb1\xd7;'
p869
tp870
Rp871
ag1
(g5
S'\x9c\x04Q;'
p872
tp873
Rp874
ag1
(g5
S'\xbf\x00\xe1;'
p875
tp876
Rp877
ag1
(g5
S'\xe3RS;'
p878
tp879
Rp880
ag1
(g5
S'\x8d.\xc3='
p881
tp882
Rp883
ag1
(g5
S'\x93\x10I;'
p884
tp885
Rp886
ag1
(g5
S'\x0b\xc4^<'
p887
tp888
Rp889
ag1
(g5
S'\xb5\x183;'
p890
tp891
Rp892
ag1
(g5
S'\xc1\x03\xfb='
p893
tp894
Rp895
ag1
(g5
S'\t\x98\xa5<'
p896
tp897
Rp898
ag1
(g5
S'\xa5A\xda<'
p899
tp900
Rp901
ag1
(g5
S'i\xc7\x0e<'
p902
tp903
Rp904
ag1
(g5
S']\x1f\xd9<'
p905
tp906
Rp907
ag1
(g5
S'\x9f{\xee;'
p908
tp909
Rp910
ag1
(g5
S'\xec\xc4\x9d<'
p911
tp912
Rp913
ag1
(g5
S'\xb6\xa2M<'
p914
tp915
Rp916
ag1
(g5
S'=\x0e\xfc<'
p917
tp918
Rp919
ag1
(g5
S'P\xa2C;'
p920
tp921
Rp922
ag1
(g5
S'\x86s3='
p923
tp924
Rp925
ag1
(g5
S'\x94\xebD;'
p926
tp927
Rp928
ag1
(g5
S'\x0b~\xe9<'
p929
tp930
Rp931
ag1
(g5
S'\xfe*\x9a<'
p932
tp933
Rp934
ag1
(g5
S'\xcb\x8d\x87;'
p935
tp936
Rp937
ag1
(g5
S'\x1a\xac|='
p938
tp939
Rp940
ag1
(g5
S'\x0f\xc7\xb8;'
p941
tp942
Rp943
ag1
(g5
S'\xfa\xf7\xf3<'
p944
tp945
Rp946
ag1
(g5
S'\xd0P\x0b<'
p947
tp948
Rp949
ag1
(g5
S'k#\x84<'
p950
tp951
Rp952
ag1
(g5
S'\x16\xa7\xa6;'
p953
tp954
Rp955
ag1
(g5
S'MJ\x18<'
p956
tp957
Rp958
ag1
(g5
S'IV\x1c<'
p959
tp960
Rp961
ag1
(g5
S'\xd3y\xe7;'
p962
tp963
Rp964
ag1
(g5
S'\x14\xf7o<'
p965
tp966
Rp967
ag1
(g5
S'U\xca\x9e;'
p968
tp969
Rp970
ag1
(g5
S'B\xa64>'
p971
tp972
Rp973
ag1
(g5
S'\xf0\xfb\xd2;'
p974
tp975
Rp976
ag1
(g5
S'`\x94\xf6;'
p977
tp978
Rp979
ag1
(g5
S'\x98=^<'
p980
tp981
Rp982
ag1
(g5
S'J\xb5_='
p983
tp984
Rp985
ag1
(g5
S'\x95\xbb\x05>'
p986
tp987
Rp988
ag1
(g5
S'\xb5uN;'
p989
tp990
Rp991
ag1
(g5
S'U\xf9K='
p992
tp993
Rp994
ag1
(g5
S"\x1d'\xe1;"
p995
tp996
Rp997
ag1
(g5
S'\x89O\x97='
p998
tp999
Rp1000
ag1
(g5
S'\x8b0\x8a='
p1001
tp1002
Rp1003
ag1
(g5
S'\xe4\xf4\x1e<'
p1004
tp1005
Rp1006
ag1
(g5
S'KQ\xf0;'
p1007
tp1008
Rp1009
ag1
(g5
S'\xe2,\xd9='
p1010
tp1011
Rp1012
ag1
(g5
S'\xe3\x87x='
p1013
tp1014
Rp1015
ag1
(g5
S'%\x8a\xcb;'
p1016
tp1017
Rp1018
ag1
(g5
S'\x94\x98.;'
p1019
tp1020
Rp1021
ag1
(g5
S'\x87\xd2^<'
p1022
tp1023
Rp1024
ag1
(g5
S'i/\x0e<'
p1025
tp1026
Rp1027
ag1
(g5
S'k\xab\xea<'
p1028
tp1029
Rp1030
ag1
(g5
S' \x01\xa3='
p1031
tp1032
Rp1033
ag1
(g5
S'\xe1\x83\xa4<'
p1034
tp1035
Rp1036
ag1
(g5
S'\xa9gj;'
p1037
tp1038
Rp1039
ag1
(g5
S'\x13/?='
p1040
tp1041
Rp1042
ag1
(g5
S'dp\x83>'
p1043
tp1044
Rp1045
ag1
(g5
S'\xb4\x04M<'
p1046
tp1047
Rp1048
ag1
(g5
S'H\x14\x14='
p1049
tp1050
Rp1051
ag1
(g5
S'\xcc\x8d\xa1;'
p1052
tp1053
Rp1054
ag1
(g5
S'\\\xaf\xdb;'
p1055
tp1056
Rp1057
ag1
(g5
S'\xc4\xf6|<'
p1058
tp1059
Rp1060
ag1
(g5
S'\x1a\xac|='
p1061
tp1062
Rp1063
ag1
(g5
S'8A!<'
p1064
tp1065
Rp1066
ag1
(g5
S'}\xb5\xb1;'
p1067
tp1068
Rp1069
ag1
(g5
S'ZH\xd0;'
p1070
tp1071
Rp1072
ag1
(g5
S'ZS\xc6;'
p1073
tp1074
Rp1075
ag1
(g5
S'\xd5\x9a\x9d<'
p1076
tp1077
Rp1078
ag1
(g5
S'\xa6mt<'
p1079
tp1080
Rp1081
ag1
(g5
S'x\xc2A;'
p1082
tp1083
Rp1084
ag1
(g5
S't;f='
p1085
tp1086
Rp1087
ag1
(g5
S'e,\xb2;'
p1088
tp1089
Rp1090
ag1
(g5
S'e~\x8a;'
p1091
tp1092
Rp1093
ag1
(g5
S'\xfe\x8c\x9b<'
p1094
tp1095
Rp1096
ag1
(g5
S'\xd7\x90\xad;'
p1097
tp1098
Rp1099
ag1
(g5
S'RC\x97<'
p1100
tp1101
Rp1102
ag1
(g5
S'K\xd7\x9d;'
p1103
tp1104
Rp1105
ag1
(g5
S'\x05\x9e\x11<'
p1106
tp1107
Rp1108
ag1
(g5
S'\x84\xde\xa1='
p1109
tp1110
Rp1111
ag1
(g5
S'\xdb\x036<'
p1112
tp1113
Rp1114
ag1
(g5
S'\x02\x03;<'
p1115
tp1116
Rp1117
ag1
(g5
S'\xdd\x06\x80<'
p1118
tp1119
Rp1120
ag1
(g5
S'\x8a\xda\x90<'
p1121
tp1122
Rp1123
ag1
(g5
S'0q]<'
p1124
tp1125
Rp1126
ag1
(g5
S'\xdf\xec\xd2='
p1127
tp1128
Rp1129
ag1
(g5
S'\xcfG\x9c;'
p1130
tp1131
Rp1132
ag1
(g5
S'%\x8a\x1c<'
p1133
tp1134
Rp1135
ag1
(g5
S':\x15\x92='
p1136
tp1137
Rp1138
ag1
(g5
S'eWi<'
p1139
tp1140
Rp1141
ag1
(g5
S'r\xd2\x80<'
p1142
tp1143
Rp1144
ag1
(g5
S'(2\xb2<'
p1145
tp1146
Rp1147
ag1
(g5
S'\xb3\xb1\xda;'
p1148
tp1149
Rp1150
ag1
(g5
S'\x08@\x81;'
p1151
tp1152
Rp1153
ag1
(g5
S'\xd3\x0e\xb4;'
p1154
tp1155
Rp1156
ag1
(g5
S'M\xb3\x02='
p1157
tp1158
Rp1159
ag1
(g5
S'\xd2\x8a\x00>'
p1160
tp1161
Rp1162
ag1
(g5
S"\x8c'\xe1;"
p1163
tp1164
Rp1165
ag1
(g5
S'j\t]<'
p1166
tp1167
Rp1168
ag1
(g5
S'\x0e\x80\x87;'
p1169
tp1170
Rp1171
ag1
(g5
S'\xf26N<'
p1172
tp1173
Rp1174
ag1
(g5
S'\x9a,\xc6;'
p1175
tp1176
Rp1177
ag1
(g5
S'J\xfe=>'
p1178
tp1179
Rp1180
ag1
(g5
S'\x14\xa8\x98;'
p1181
tp1182
Rp1183
ag1
(g5
S'U\xb2\xa2;'
p1184
tp1185
Rp1186
ag1
(g5
S'\x10\x0b{<'
p1187
tp1188
Rp1189
ag1
(g5
S'\x14(\x9e;'
p1190
tp1191
Rp1192
ag1
(g5
S'z[\xc6<'
p1193
tp1194
Rp1195
ag1
(g5
S'\x00\xfd\xbe<'
p1196
tp1197
Rp1198
ag1
(g5
S'%\xc81='
p1199
tp1200
Rp1201
ag1
(g5
S'n[\xc1;'
p1202
tp1203
Rp1204
ag1
(g5
S'\x07o\x1e='
p1205
tp1206
Rp1207
ag1
(g5
S'z#\x80<'
p1208
tp1209
Rp1210
ag1
(g5
S'kA{='
p1211
tp1212
Rp1213
ag1
(g5
S'k\x9e\xd3;'
p1214
tp1215
Rp1216
ag1
(g5
S'x\xbb\x86='
p1217
tp1218
Rp1219
ag1
(g5
S'\xd0\x02\xb1<'
p1220
tp1221
Rp1222
ag1
(g5
S'\x00N\x96;'
p1223
tp1224
Rp1225
ag1
(g5
S'\x07\xedN;'
p1226
tp1227
Rp1228
ag1
(g5
S'L0Q;'
p1229
tp1230
Rp1231
ag1
(g5
S'V\x05\x02<'
p1232
tp1233
Rp1234
ag1
(g5
S'\xfd\x0c\x07='
p1235
tp1236
Rp1237
ag1
(g5
S'#\x1d\xe9;'
p1238
tp1239
Rp1240
ag1
(g5
S'\xab\xdb\x0b<'
p1241
tp1242
Rp1243
ag1
(g5
S'\xfe\xfb\xca<'
p1244
tp1245
Rp1246
ag1
(g5
S'\n\x97\xdd;'
p1247
tp1248
Rp1249
ag1
(g5
S'\xc5\x89\xe9<'
p1250
tp1251
Rp1252
ag1
(g5
S']\x98\x0f<'
p1253
tp1254
Rp1255
ag1
(g5
S'\x90\xe6#<'
p1256
tp1257
Rp1258
ag1
(g5
S'}\xc4\x17<'
p1259
tp1260
Rp1261
ag1
(g5
S'\x82\xfe\xb9;'
p1262
tp1263
Rp1264
ag1
(g5
S'4r\x82;'
p1265
tp1266
Rp1267
ag1
(g5
S'\x99\xd2U<'
p1268
tp1269
Rp1270
ag1
(g5
S'\x92B\r='
p1271
tp1272
Rp1273
ag1
(g5
S'\xec\x1f\x9c>'
p1274
tp1275
Rp1276
ag1
(g5
S'm\x02\x86;'
p1277
tp1278
Rp1279
ag1
(g5
S'j\x8dB='
p1280
tp1281
Rp1282
ag1
(g5
S'v\x8e\xeb;'
p1283
tp1284
Rp1285
ag1
(g5
S'+\xffd;'
p1286
tp1287
Rp1288
ag1
(g5
S'\\ta;'
p1289
tp1290
Rp1291
ag1
(g5
S'%\x10n;'
p1292
tp1293
Rp1294
ag1
(g5
S'\xea\xe7\x8e<'
p1295
tp1296
Rp1297
ag1
(g5
S'D]\x0f<'
p1298
tp1299
Rp1300
ag1
(g5
S'E\x15\xcd<'
p1301
tp1302
Rp1303
ag1
(g5
S"\x19D'<"
p1304
tp1305
Rp1306
ag1
(g5
S'j\x01\xe2<'
p1307
tp1308
Rp1309
ag1
(g5
S'\xa4\xa8\\;'
p1310
tp1311
Rp1312
ag1
(g5
S'\xe8\x86\xa1='
p1313
tp1314
Rp1315
ag1
(g5
S'\x99g\xd5<'
p1316
tp1317
Rp1318
ag1
(g5
S'\xe9\x9b\xce;'
p1319
tp1320
Rp1321
ag1
(g5
S'(\x13\x85<'
p1322
tp1323
Rp1324
ag1
(g5
S'\x13f\\;'
p1325
tp1326
Rp1327
ag1
(g5
S'\xbf\xac\x97;'
p1328
tp1329
Rp1330
ag1
(g5
S'\x10+\xd1;'
p1331
tp1332
Rp1333
ag1
(g5
S'\x96j\x85<'
p1334
tp1335
Rp1336
ag1
(g5
S'X\x9f\xa1<'
p1337
tp1338
Rp1339
ag1
(g5
S'\xc0C*='
p1340
tp1341
Rp1342
ag1
(g5
S'E\x01\xbf<'
p1343
tp1344
Rp1345
ag1
(g5
S'Cy\xd9<'
p1346
tp1347
Rp1348
ag1
(g5
S'\x016\x82;'
p1349
tp1350
Rp1351
ag1
(g5
S'cS\xaa<'
p1352
tp1353
Rp1354
ag1
(g5
S'uY\x9f<'
p1355
tp1356
Rp1357
ag1
(g5
S'dK\x10='
p1358
tp1359
Rp1360
ag1
(g5
S'\x1a>\x02<'
p1361
tp1362
Rp1363
ag1
(g5
S"\x8c'\xe1;"
p1364
tp1365
Rp1366
ag1
(g5
S'\xf0\x8a\xec<'
p1367
tp1368
Rp1369
ag1
(g5
S'\x1b\x14\x16='
p1370
tp1371
Rp1372
ag1
(g5
S'\x85\xb0\x0f<'
p1373
tp1374
Rp1375
ag1
(g5
S'|(o='
p1376
tp1377
Rp1378
ag1
(g5
S'\xc5\r\xcb;'
p1379
tp1380
Rp1381
ag1
(g5
S'\xafX\xb3<'
p1382
tp1383
Rp1384
ag1
(g5
S'\xea\x91\x01<'
p1385
tp1386
Rp1387
ag1
(g5
S'Ea\x14<'
p1388
tp1389
Rp1390
ag1
(g5
S'\x1e\xcdG;'
p1391
tp1392
Rp1393
ag1
(g5
S'4]\xc9='
p1394
tp1395
Rp1396
ag1
(g5
S',\xee\xbc<'
p1397
tp1398
Rp1399
ag1
(g5
S'\xe8\xa4\x19='
p1400
tp1401
Rp1402
ag1
(g5
S'\xc1\xcck<'
p1403
tp1404
Rp1405
ag1
(g5
S'\xad\xb6\xa5<'
p1406
tp1407
Rp1408
ag1
(g5
S'\xe6M+<'
p1409
tp1410
Rp1411
ag1
(g5
S'4\xfc\xa7;'
p1412
tp1413
Rp1414
ag1
(g5
S'\xba\xa2A<'
p1415
tp1416
Rp1417
ag1
(g5
S'\xd2\xf7 <'
p1418
tp1419
Rp1420
ag1
(g5
S'\xb0\xe2d<'
p1421
tp1422
Rp1423
ag1
(g5
S'\xec\xab\xff;'
p1424
tp1425
Rp1426
ag1
(g5
S'{g\xe2<'
p1427
tp1428
Rp1429
ag1
(g5
S'6\xc8:<'
p1430
tp1431
Rp1432
ag1
(g5
S'u0\xa1;'
p1433
tp1434
Rp1435
ag1
(g5
S'\\?\xa7;'
p1436
tp1437
Rp1438
ag1
(g5
S'$3\xf8;'
p1439
tp1440
Rp1441
ag1
(g5
S'\xcc{^<'
p1442
tp1443
Rp1444
ag1
(g5
S'\x8eC\x11<'
p1445
tp1446
Rp1447
ag1
(g5
S'*&\xc3>'
p1448
tp1449
Rp1450
ag1
(g5
S'\xb6\x06\x9c<'
p1451
tp1452
Rp1453
ag1
(g5
S'\x91g`<'
p1454
tp1455
Rp1456
ag1
(g5
S'\x1d\x9e\xf6;'
p1457
tp1458
Rp1459
ag1
(g5
S'V\xbb\x14<'
p1460
tp1461
Rp1462
ag1
(g5
S'\x00\xc3\xa6<'
p1463
tp1464
Rp1465
ag1
(g5
S'\xe9\x95\xa4;'
p1466
tp1467
Rp1468
ag1
(g5
S'G\xe3c;'
p1469
tp1470
Rp1471
ag1
(g5
S'\xa8f\xc1<'
p1472
tp1473
Rp1474
ag1
(g5
S'\xf3t\x13<'
p1475
tp1476
Rp1477
ag1
(g5
S'\xc9\x1c_<'
p1478
tp1479
Rp1480
ag1
(g5
S'TW\xb1='
p1481
tp1482
Rp1483
ag1
(g5
S'\xfd\x91\xab='
p1484
tp1485
Rp1486
ag1
(g5
S'&Xh='
p1487
tp1488
Rp1489
ag1
(g5
S'\x8c\xa7\xca<'
p1490
tp1491
Rp1492
ag1
(g5
S'\xc8Al<'
p1493
tp1494
Rp1495
ag1
(g5
S'\xf4}\xb9;'
p1496
tp1497
Rp1498
ag1
(g5
S'c\x81x;'
p1499
tp1500
Rp1501
ag1
(g5
S't\x85\x0e<'
p1502
tp1503
Rp1504
ag1
(g5
S'[R\x92;'
p1505
tp1506
Rp1507
ag1
(g5
S'b\xab\x9a<'
p1508
tp1509
Rp1510
ag1
(g5
S'FD\x8e='
p1511
tp1512
Rp1513
ag1
(g5
S']\x86\xb0<'
p1514
tp1515
Rp1516
ag1
(g5
S'X\xf1\xb7;'
p1517
tp1518
Rp1519
ag1
(g5
S'\xa6\xac\x10='
p1520
tp1521
Rp1522
ag1
(g5
S'\x93m\xa5<'
p1523
tp1524
Rp1525
ag1
(g5
S'\x0fk);'
p1526
tp1527
Rp1528
ag1
(g5
S'\xa9\x06d='
p1529
tp1530
Rp1531
ag1
(g5
S']\xbf\x12<'
p1532
tp1533
Rp1534
ag1
(g5
S'\xd3M\xb2;'
p1535
tp1536
Rp1537
ag1
(g5
S'\xf7q\xef;'
p1538
tp1539
Rp1540
ag1
(g5
S'j\x8dB='
p1541
tp1542
Rp1543
ag1
(g5
S'\x02\xc3\xd6;'
p1544
tp1545
Rp1546
ag1
(g5
S'\x85\t\x88;'
p1547
tp1548
Rp1549
ag1
(g5
S'\xc9t\x1c>'
p1550
tp1551
Rp1552
ag1
(g5
S'\x89\xee\x0c<'
p1553
tp1554
Rp1555
ag1
(g5
S'\xea\xb7d<'
p1556
tp1557
Rp1558
ag1
(g5
S'B\xb8\x9f='
p1559
tp1560
Rp1561
ag1
(g5
S'q\xdf\x95;'
p1562
tp1563
Rp1564
ag1
(g5
S'\x88\xa3\xd5<'
p1565
tp1566
Rp1567
ag1
(g5
S'\xdd\xd9\x81;'
p1568
tp1569
Rp1570
ag1
(g5
S'?\xd6\xcb;'
p1571
tp1572
Rp1573
ag1
(g5
S'\xdd\x10\xae<'
p1574
tp1575
Rp1576
ag1
(g5
S'L\xc7\x9e<'
p1577
tp1578
Rp1579
ag1
(g5
S'\xb8t\x95<'
p1580
tp1581
Rp1582
ag1
(g5
S'\xcb\xfe{<'
p1583
tp1584
Rp1585
ag1
(g5
S'\xbe^\x8b;'
p1586
tp1587
Rp1588
ag1
(g5
S'\xb6\xcd\x90;'
p1589
tp1590
Rp1591
ag1
(g5
S'\xdf\xd2w='
p1592
tp1593
Rp1594
ag1
(g5
S'xyz='
p1595
tp1596
Rp1597
ag1
(g5
S']d\x86='
p1598
tp1599
Rp1600
ag1
(g5
S'nN\x8f<'
p1601
tp1602
Rp1603
ag1
(g5
S'\xcd\x86\x1b<'
p1604
tp1605
Rp1606
ag1
(g5
S'\xb1\xd6@<'
p1607
tp1608
Rp1609
ag1
(g5
S'5\xb2\xa5<'
p1610
tp1611
Rp1612
ag1
(g5
S'\x017E<'
p1613
tp1614
Rp1615
ag1
(g5
S'\xc9-t='
p1616
tp1617
Rp1618
ag1
(g5
S'j`H='
p1619
tp1620
Rp1621
ag1
(g5
S'2d\x8b<'
p1622
tp1623
Rp1624
ag1
(g5
S'\xee>\x11<'
p1625
tp1626
Rp1627
ag1
(g5
S'EG\xcb;'
p1628
tp1629
Rp1630
ag1
(g5
S'\x1e\xbd?;'
p1631
tp1632
Rp1633
ag1
(g5
S'p{\x01<'
p1634
tp1635
Rp1636
ag1
(g5
S'\xdac\xa3<'
p1637
tp1638
Rp1639
ag1
(g5
S'\x96iF='
p1640
tp1641
Rp1642
ag1
(g5
S'\xd2JV<'
p1643
tp1644
Rp1645
ag1
(g5
S'\x16\xef\x1f<'
p1646
tp1647
Rp1648
ag1
(g5
S'\xf1c\x8e<'
p1649
tp1650
Rp1651
ag1
(g5
S'\x01\xde\xea;'
p1652
tp1653
Rp1654
ag1
(g5
S'\x0b"T<'
p1655
tp1656
Rp1657
ag1
(g5
S'g]\xe8;'
p1658
tp1659
Rp1660
ag1
(g5
S'g2\xb2<'
p1661
tp1662
Rp1663
ag1
(g5
S'\x96iF='
p1664
tp1665
Rp1666
ag1
(g5
S'\xbf|\xfe;'
p1667
tp1668
Rp1669
ag1
(g5
S'p\xc8_='
p1670
tp1671
Rp1672
ag1
(g5
S'\xc0\xbc~;'
p1673
tp1674
Rp1675
ag1
(g5
S'\xe3j\xe3;'
p1676
tp1677
Rp1678
ag1
(g5
S'\xd2\xb7K<'
p1679
tp1680
Rp1681
ag1
(g5
S'\xc0B\xcb='
p1682
tp1683
Rp1684
ag1
(g5
S'\xe4\xfc\x89>'
p1685
tp1686
Rp1687
ag1
(g5
S'\x10\x7f\x81;'
p1688
tp1689
Rp1690
ag1
(g5
S'\x95\x81\xba;'
p1691
tp1692
Rp1693
ag1
(g5
S'\x01\x07\x9c;'
p1694
tp1695
Rp1696
ag1
(g5
S'\xa4\xfaA='
p1697
tp1698
Rp1699
ag1
(g5
S'[\x96\xed;'
p1700
tp1701
Rp1702
ag1
(g5
S'\x98j\xa8<'
p1703
tp1704
Rp1705
ag1
(g5
S'j\x8dB='
p1706
tp1707
Rp1708
ag1
(g5
S'9y\xe3;'
p1709
tp1710
Rp1711
ag1
(g5
S'\xbc\xe6\\='
p1712
tp1713
Rp1714
ag1
(g5
S'\xb2y%;'
p1715
tp1716
Rp1717
ag1
(g5
S'kl4;'
p1718
tp1719
Rp1720
ag1
(g5
S'\x1f2\x80<'
p1721
tp1722
Rp1723
ag1
(g5
S'\xc2\xf6\xcd<'
p1724
tp1725
Rp1726
ag1
(g5
S'U\n\x16='
p1727
tp1728
Rp1729
ag1
(g5
S'\xee\xf4\xfa<'
p1730
tp1731
Rp1732
ag1
(g5
S'\xb4\xa1z='
p1733
tp1734
Rp1735
ag1
(g5
S'\xdd\x1e\xd2;'
p1736
tp1737
Rp1738
ag1
(g5
S'*G%<'
p1739
tp1740
Rp1741
ag1
(g5
S'\xed9h='
p1742
tp1743
Rp1744
ag1
(g5
S'\xde1\xdd;'
p1745
tp1746
Rp1747
ag1
(g5
S'P\x9b\xda<'
p1748
tp1749
Rp1750
ag1
(g5
S'\xef~\x80;'
p1751
tp1752
Rp1753
ag1
(g5
S'\x9e\xaaj;'
p1754
tp1755
Rp1756
ag1
(g5
S'2\x1e\xd9;'
p1757
tp1758
Rp1759
ag1
(g5
S')\xff\x12;'
p1760
tp1761
Rp1762
ag1
(g5
S'\x84O7;'
p1763
tp1764
Rp1765
ag1
(g5
S'\xdd"\xfa;'
p1766
tp1767
Rp1768
ag1
(g5
S'`\xa7-<'
p1769
tp1770
Rp1771
ag1
(g5
S'\x80\xe1\xde<'
p1772
tp1773
Rp1774
ag1
(g5
S'\xdac\xa3<'
p1775
tp1776
Rp1777
ag1
(g5
S'\xbd\xc5\xa9<'
p1778
tp1779
Rp1780
ag1
(g5
S'\xd7 o;'
p1781
tp1782
Rp1783
ag1
(g5
S'}\xcb\x9b<'
p1784
tp1785
Rp1786
ag1
(g5
S'\x97\x043;'
p1787
tp1788
Rp1789
ag1
(g5
S'\x96\xc0\x14<'
p1790
tp1791
Rp1792
ag1
(g5
S'j\x8dB='
p1793
tp1794
Rp1795
ag1
(g5
S'.\xe1M='
p1796
tp1797
Rp1798
ag1
(g5
S'\x8aoP<'
p1799
tp1800
Rp1801
ag1
(g5
S'\xc8Oi<'
p1802
tp1803
Rp1804
ag1
(g5
S'n\x05\xfb;'
p1805
tp1806
Rp1807
ag1
(g5
S'N\xc4A<'
p1808
tp1809
Rp1810
ag1
(g5
S'\xc9r\x9e<'
p1811
tp1812
Rp1813
ag1
(g5
S'\xa0<\xf2<'
p1814
tp1815
Rp1816
ag1
(g5
S'\xf6\x02z<'
p1817
tp1818
Rp1819
ag1
(g5
S'\xd0\xe1\x90;'
p1820
tp1821
Rp1822
ag1
(g5
S'Y\xc7\xaa='
p1823
tp1824
Rp1825
ag1
(g5
S'+\xd0 <'
p1826
tp1827
Rp1828
ag1
(g5
S'/(\xf9;'
p1829
tp1830
Rp1831
ag1
(g5
S'[\xe3\x1f<'
p1832
tp1833
Rp1834
ag1
(g5
S'\xecj\xe8;'
p1835
tp1836
Rp1837
ag1
(g5
S'\x07\x10\xdb<'
p1838
tp1839
Rp1840
ag1
(g5
S'^W4<'
p1841
tp1842
Rp1843
ag1
(g5
S'\xa1\x87\x96='
p1844
tp1845
Rp1846
ag1
(g5
S'\x14\x85-<'
p1847
tp1848
Rp1849
ag1
(g5
S'p\xc8_='
p1850
tp1851
Rp1852
ag1
(g5
S'0Z\xfc<'
p1853
tp1854
Rp1855
ag1
(g5
S'd8R>'
p1856
tp1857
Rp1858
ag1
(g5
S'\xeb\x14\x1b='
p1859
tp1860
Rp1861
ag1
(g5
S'\xca\x87\x83;'
p1862
tp1863
Rp1864
ag1
(g5
S'v\xe3g>'
p1865
tp1866
Rp1867
ag1
(g5
S'\xb6\xc0\xb4<'
p1868
tp1869
Rp1870
ag1
(g5
S'\xfd\x9b!<'
p1871
tp1872
Rp1873
ag1
(g5
S'\xf2\x96\x0b<'
p1874
tp1875
Rp1876
ag1
(g5
S'\xd2A"='
p1877
tp1878
Rp1879
ag1
(g5
S'M\xd2\x81;'
p1880
tp1881
Rp1882
ag1
(g5
S'`I\xd4='
p1883
tp1884
Rp1885
ag1
(g5
S'\x86\xb3\xce;'
p1886
tp1887
Rp1888
ag1
(g5
S'\x87\xda\xe7;'
p1889
tp1890
Rp1891
ag1
(g5
S'\xf6_\xe9;'
p1892
tp1893
Rp1894
ag1
(g5
S'\xd9-\xb8;'
p1895
tp1896
Rp1897
ag1
(g5
S'\xc98\x8a;'
p1898
tp1899
Rp1900
ag1
(g5
S'T\xa6\x0c;'
p1901
tp1902
Rp1903
ag1
(g5
S'/\xdd\xd7;'
p1904
tp1905
Rp1906
ag1
(g5
S'\x14X\n='
p1907
tp1908
Rp1909
ag1
(g5
S';k0<'
p1910
tp1911
Rp1912
ag1
(g5
S'\xc6\xd1\x9f='
p1913
tp1914
Rp1915
ag1
(g5
S'\xdfZ\xd5;'
p1916
tp1917
Rp1918
ag1
(g5
S"\x89'\xea;"
p1919
tp1920
Rp1921
ag1
(g5
S'\xdd\xa8\xe4<'
p1922
tp1923
Rp1924
ag1
(g5
S'\xaa1 <'
p1925
tp1926
Rp1927
ag1
(g5
S'\xceA\x15='
p1928
tp1929
Rp1930
ag1
(g5
S'\xde3\x06>'
p1931
tp1932
Rp1933
ag1
(g5
S'#T\xdd<'
p1934
tp1935
Rp1936
ag1
(g5
S"' \x8b;"
p1937
tp1938
Rp1939
ag1
(g5
S'e\xd5\x8f='
p1940
tp1941
Rp1942
ag1
(g5
S'\xe4Tv<'
p1943
tp1944
Rp1945
ag1
(g5
S'j\x8dB='
p1946
tp1947
Rp1948
ag1
(g5
S'\xd9\xedn;'
p1949
tp1950
Rp1951
ag1
(g5
S'\x89q\x8a;'
p1952
tp1953
Rp1954
ag1
(g5
S'\x87\xfd\x00;'
p1955
tp1956
Rp1957
ag1
(g5
S'\xf1\xe9"='
p1958
tp1959
Rp1960
ag1
(g5
S'\xbbA\x14<'
p1961
tp1962
Rp1963
ag1
(g5
S'E\xb1\x94;'
p1964
tp1965
Rp1966
ag1
(g5
S'\xf4r\xac;'
p1967
tp1968
Rp1969
ag1
(g5
S'\x84\xc2\xd5;'
p1970
tp1971
Rp1972
ag1
(g5
S'dK\xd4;'
p1973
tp1974
Rp1975
ag1
(g5
S'e\n">'
p1976
tp1977
Rp1978
ag1
(g5
S'N\xbe\xe6;'
p1979
tp1980
Rp1981
ag1
(g5
S'U\x7f\x16<'
p1982
tp1983
Rp1984
ag1
(g5
S'\xc2A\x86;'
p1985
tp1986
Rp1987
ag1
(g5
S'\x17\xb3n<'
p1988
tp1989
Rp1990
ag1
(g5
S'\xc7(\x08='
p1991
tp1992
Rp1993
ag1
(g5
S'\x12\x08\x17<'
p1994
tp1995
Rp1996
ag1
(g5
S'\x12\xa9\x88;'
p1997
tp1998
Rp1999
ag1
(g5
S'\x97\xe1Z='
p2000
tp2001
Rp2002
ag1
(g5
S'\xc3\r\xd6<'
p2003
tp2004
Rp2005
ag1
(g5
S'\xa0<\xf2<'
p2006
tp2007
Rp2008
ag1
(g5
S'\xf9x_='
p2009
tp2010
Rp2011
ag1
(g5
S'\xddL\x91;'
p2012
tp2013
Rp2014
ag1
(g5
S's\xec\x00;'
p2015
tp2016
Rp2017
ag1
(g5
S'w}\x96<'
p2018
tp2019
Rp2020
ag1
(g5
S'\x7f%/;'
p2021
tp2022
Rp2023
ag1
(g5
S'\x84\xab\x06='
p2024
tp2025
Rp2026
ag1
(g5
S'\x932\xbc<'
p2027
tp2028
Rp2029
ag1
(g5
S'j\xf4\x01>'
p2030
tp2031
Rp2032
ag1
(g5
S'\xc5\x00#<'
p2033
tp2034
Rp2035
ag1
(g5
S'\x00P\xb8;'
p2036
tp2037
Rp2038
ag1
(g5
S'P\xcc\x9f;'
p2039
tp2040
Rp2041
ag1
(g5
S'\x98\x01\x07<'
p2042
tp2043
Rp2044
ag1
(g5
S'!\xebh;'
p2045
tp2046
Rp2047
ag1
(g5
S'\xf6\x0c\x95='
p2048
tp2049
Rp2050
ag1
(g5
S'B\xbf\x87<'
p2051
tp2052
Rp2053
ag1
(g5
S'\xed\xf2\x8f;'
p2054
tp2055
Rp2056
ag1
(g5
S'\xd7\xe2y<'
p2057
tp2058
Rp2059
ag1
(g5
S'\x8e\x83\xb2='
p2060
tp2061
Rp2062
ag1
(g5
S'K\xe5\xd1<'
p2063
tp2064
Rp2065
ag1
(g5
S'o\xf9\x85;'
p2066
tp2067
Rp2068
ag1
(g5
S'\xe4!e<'
p2069
tp2070
Rp2071
ag1
(g5
S'[\x02\xe3;'
p2072
tp2073
Rp2074
ag1
(g5
S'\xd6\xbbw;'
p2075
tp2076
Rp2077
ag1
(g5
S'\x96iF='
p2078
tp2079
Rp2080
ag1
(g5
S'\xb7GB<'
p2081
tp2082
Rp2083
ag1
(g5
S'\xda\xf4\xb6<'
p2084
tp2085
Rp2086
ag1
(g5
S'\xe2\xf4=='
p2087
tp2088
Rp2089
ag1
(g5
S'i$\x8e<'
p2090
tp2091
Rp2092
ag1
(g5
S'\xd8B\x15<'
p2093
tp2094
Rp2095
ag1
(g5
S'\x9dn\xcc;'
p2096
tp2097
Rp2098
ag1
(g5
S'\x18\x15\xab='
p2099
tp2100
Rp2101
ag1
(g5
S'|R1<'
p2102
tp2103
Rp2104
ag1
(g5
S'\x8f\xc0\xad;'
p2105
tp2106
Rp2107
ag1
(g5
S'Hr?<'
p2108
tp2109
Rp2110
ag1
(g5
S'\xc0KJ<'
p2111
tp2112
Rp2113
ag1
(g5
S'1\xe4\xbf>'
p2114
tp2115
Rp2116
ag1
(g5
S'O\x88\xae<'
p2117
tp2118
Rp2119
ag1
(g5
S'\t\x07\x02<'
p2120
tp2121
Rp2122
ag1
(g5
S'\xb6\xa6\x04<'
p2123
tp2124
Rp2125
ag1
(g5
S'AO\xcf;'
p2126
tp2127
Rp2128
ag1
(g5
S'\xf7p\xa8<'
p2129
tp2130
Rp2131
ag1
(g5
S'\x85M\x93;'
p2132
tp2133
Rp2134
ag1
(g5
S'd\xdb\x08<'
p2135
tp2136
Rp2137
ag1
(g5
S't0|<'
p2138
tp2139
Rp2140
ag1
(g5
S'\xf2Jv='
p2141
tp2142
Rp2143
ag1
(g5
S'\x9dY\xb0<'
p2144
tp2145
Rp2146
ag1
(g5
S'\x13V\x06<'
p2147
tp2148
Rp2149
ag1
(g5
S']\x8e\xb3;'
p2150
tp2151
Rp2152
ag1
(g5
S'c\x8ef<'
p2153
tp2154
Rp2155
ag1
(g5
S'\xa3\x91/='
p2156
tp2157
Rp2158
ag1
(g5
S'\xc9\xa7\x89<'
p2159
tp2160
Rp2161
ag1
(g5
S'\xa2\x0f\x1b;'
p2162
tp2163
Rp2164
ag1
(g5
S':\\ ='
p2165
tp2166
Rp2167
ag1
(g5
S'G<m='
p2168
tp2169
Rp2170
ag1
(g5
S'\xa6\x8a\x1a<'
p2171
tp2172
Rp2173
ag1
(g5
S';\xa6\x98>'
p2174
tp2175
Rp2176
ag1
(g5
S'\xe3\t\xcb<'
p2177
tp2178
Rp2179
ag1
(g5
S'\xc3P@<'
p2180
tp2181
Rp2182
ag1
(g5
S'\x1flO<'
p2183
tp2184
Rp2185
ag1
(g5
S'\xfc\xdd\x86;'
p2186
tp2187
Rp2188
ag1
(g5
S'B\\^;'
p2189
tp2190
Rp2191
ag1
(g5
S'\xa3\xe9\n<'
p2192
tp2193
Rp2194
ag1
(g5
S'\\?\xa7;'
p2195
tp2196
Rp2197
ag1
(g5
S'_O\xf6;'
p2198
tp2199
Rp2200
ag1
(g5
S'/\x9fy;'
p2201
tp2202
Rp2203
ag1
(g5
S'r\x946='
p2204
tp2205
Rp2206
ag1
(g5
S'\xbf\x00\xe1;'
p2207
tp2208
Rp2209
ag1
(g5
S'\xbeq&<'
p2210
tp2211
Rp2212
ag1
(g5
S'#\x05\xe6;'
p2213
tp2214
Rp2215
ag1
(g5
S'\xde\xac\x01<'
p2216
tp2217
Rp2218
ag1
(g5
S'Ll\xdb;'
p2219
tp2220
Rp2221
ag1
(g5
S'\xf9\x92\x86;'
p2222
tp2223
Rp2224
ag1
(g5
S'W\x863='
p2225
tp2226
Rp2227
ag1
(g5
S'\x01j}<'
p2228
tp2229
Rp2230
ag1
(g5
S'Ll\xdb;'
p2231
tp2232
Rp2233
ag1
(g5
S'\x03E\xef;'
p2234
tp2235
Rp2236
ag1
(g5
S'lh\x02='
p2237
tp2238
Rp2239
ag1
(g5
S'h\xe3\xc7<'
p2240
tp2241
Rp2242
ag1
(g5
S'#e\x85<'
p2243
tp2244
Rp2245
ag1
(g5
S'"\x95z;'
p2246
tp2247
Rp2248
ag1
(g5
S'Qjx='
p2249
tp2250
Rp2251
ag1
(g5
S'\xe1\xc9\x06='
p2252
tp2253
Rp2254
ag1
(g5
S'(H\x15<'
p2255
tp2256
Rp2257
ag1
(g5
S'\x04\xd3\xe8<'
p2258
tp2259
Rp2260
ag1
(g5
S'\xbd\xdb\x93;'
p2261
tp2262
Rp2263
ag1
(g5
S'^:\xf5;'
p2264
tp2265
Rp2266
ag1
(g5
S'\x87\x19\x85='
p2267
tp2268
Rp2269
ag1
(g5
S'h\x0c\xb7<'
p2270
tp2271
Rp2272
ag1
(g5
S'$\xba\x0f='
p2273
tp2274
Rp2275
ag1
(g5
S'\x9d\x96\x95;'
p2276
tp2277
Rp2278
ag1
(g5
S'\xc0AY<'
p2279
tp2280
Rp2281
ag1
(g5
S'\xf8\xb4\xba<'
p2282
tp2283
Rp2284
ag1
(g5
S'\xa7\x8c\x8c;'
p2285
tp2286
Rp2287
ag1
(g5
S'X\xd3p='
p2288
tp2289
Rp2290
ag1
(g5
S'\x1a6\x83='
p2291
tp2292
Rp2293
ag1
(g5
S'\xcf\x87\xe7<'
p2294
tp2295
Rp2296
ag1
(g5
S'\xa92\xad<'
p2297
tp2298
Rp2299
ag1
(g5
S'\xfb\x9d\xa6;'
p2300
tp2301
Rp2302
ag1
(g5
S'r\xbey<'
p2303
tp2304
Rp2305
ag1
(g5
S'\xe4 \xb5;'
p2306
tp2307
Rp2308
ag1
(g5
S'\xd1>\xcc='
p2309
tp2310
Rp2311
ag1
(g5
S'o\x85\xda;'
p2312
tp2313
Rp2314
ag1
(g5
S'\x16\xbf\xf8<'
p2315
tp2316
Rp2317
ag1
(g5
S'\xce(\x10<'
p2318
tp2319
Rp2320
ag1
(g5
S'\xaa=\xe6<'
p2321
tp2322
Rp2323
ag1
(g5
S'G\xfeU<'
p2324
tp2325
Rp2326
ag1
(g5
S'fe\xd7<'
p2327
tp2328
Rp2329
ag1
(g5
S'j\x8dB='
p2330
tp2331
Rp2332
ag1
(g5
S'z\xd4\xb6;'
p2333
tp2334
Rp2335
ag1
(g5
S'c\x95\xda;'
p2336
tp2337
Rp2338
ag1
(g5
S'\xe3\xa6\xcd<'
p2339
tp2340
Rp2341
ag1
(g5
S'\x86\xdb\xb5<'
p2342
tp2343
Rp2344
ag1
(g5
S'(\x9f\xc9<'
p2345
tp2346
Rp2347
ag1
(g5
S'\xd7\xab5;'
p2348
tp2349
Rp2350
ag1
(g5
S'\x0c\x86J<'
p2351
tp2352
Rp2353
ag1
(g5
S'\xd0\x96\xc9='
p2354
tp2355
Rp2356
ag1
(g5
S'\xe7\x1a\xcb;'
p2357
tp2358
Rp2359
ag1
(g5
S'\x96iF='
p2360
tp2361
Rp2362
ag1
(g5
S'\x11\xdb\xc3;'
p2363
tp2364
Rp2365
ag1
(g5
S'\xe3\x81\x9e;'
p2366
tp2367
Rp2368
ag1
(g5
S'\x03\xae\xaf;'
p2369
tp2370
Rp2371
ag1
(g5
S'\xeb"\xc6='
p2372
tp2373
Rp2374
ag1
(g5
S'\xd8/+;'
p2375
tp2376
Rp2377
ag1
(g5
S'\xbf\xfd\xd6='
p2378
tp2379
Rp2380
ag1
(g5
S'\xf2i\x9c<'
p2381
tp2382
Rp2383
ag1
(g5
S'\x8dn\xbc;'
p2384
tp2385
Rp2386
ag1
(g5
S'\xfb\xef\xf0<'
p2387
tp2388
Rp2389
ag1
(g5
S'\xdf\x12\xde<'
p2390
tp2391
Rp2392
ag1
(g5
S'DP\xf6;'
p2393
tp2394
Rp2395
ag1
(g5
S'\xc2A\x86;'
p2396
tp2397
Rp2398
ag1
(g5
S'$\xd0\xee<'
p2399
tp2400
Rp2401
ag1
(g5
S'\x1a\xea\x1a>'
p2402
tp2403
Rp2404
ag1
(g5
S'\x8b\n\x0f>'
p2405
tp2406
Rp2407
ag1
(g5
S'l\xc7\x9f;'
p2408
tp2409
Rp2410
ag1
(g5
S'\xeceM;'
p2411
tp2412
Rp2413
ag1
(g5
S'\x14\x8c#<'
p2414
tp2415
Rp2416
ag1
(g5
S'\xb7\x02l;'
p2417
tp2418
Rp2419
ag1
(g5
S'\xa8f\xc1<'
p2420
tp2421
Rp2422
ag1
(g5
S'\xe9\xcf\xe9;'
p2423
tp2424
Rp2425
ag1
(g5
S'\xf6\x84\x10<'
p2426
tp2427
Rp2428
ag1
(g5
S'\x1d\x82\xf9<'
p2429
tp2430
Rp2431
ag1
(g5
S'a\x02\xcd;'
p2432
tp2433
Rp2434
ag1
(g5
S'\xf0\x9d\x8f='
p2435
tp2436
Rp2437
ag1
(g5
S'\xe7;L='
p2438
tp2439
Rp2440
ag1
(g5
S'\xf1\xba\x01<'
p2441
tp2442
Rp2443
ag1
(g5
S'\xa0d\x97;'
p2444
tp2445
Rp2446
ag1
(g5
S'\xe4_J='
p2447
tp2448
Rp2449
ag1
(g5
S"V\x0e'<"
p2450
tp2451
Rp2452
ag1
(g5
S'\xcca/;'
p2453
tp2454
Rp2455
ag1
(g5
S'\x96:\x08='
p2456
tp2457
Rp2458
ag1
(g5
S'\x94\xb4\x0e;'
p2459
tp2460
Rp2461
ag1
(g5
S'\xbecR='
p2462
tp2463
Rp2464
ag1
(g5
S'7\xa1T='
p2465
tp2466
Rp2467
ag1
(g5
S'\x91\xb4\xd7;'
p2468
tp2469
Rp2470
ag1
(g5
S'\xd6F\x19<'
p2471
tp2472
Rp2473
ag1
(g5
S'\x1a\x92\x8d<'
p2474
tp2475
Rp2476
ag1
(g5
S'n\xdf\x02<'
p2477
tp2478
Rp2479
ag1
(g5
S'\xe3R\xac<'
p2480
tp2481
Rp2482
ag1
(g5
S']\x1f\xd9<'
p2483
tp2484
Rp2485
ag1
(g5
S'\x17\x11<<'
p2486
tp2487
Rp2488
ag1
(g5
S'V\xedQ='
p2489
tp2490
Rp2491
ag1
(g5
S'd>\xd6;'
p2492
tp2493
Rp2494
ag1
(g5
S'!\xcb\x83;'
p2495
tp2496
Rp2497
ag1
(g5
S'\x83\xa8\xc0;'
p2498
tp2499
Rp2500
ag1
(g5
S'\xba]\t<'
p2501
tp2502
Rp2503
ag1
(g5
S'B`\xc4;'
p2504
tp2505
Rp2506
ag1
(g5
S'\xd1\xbbN<'
p2507
tp2508
Rp2509
ag1
(g5
S'l\xea\xbc<'
p2510
tp2511
Rp2512
ag1
(g5
S'\xae$m;'
p2513
tp2514
Rp2515
ag1
(g5
S'Ez|<'
p2516
tp2517
Rp2518
ag1
(g5
S'\xa5\x97\xbd;'
p2519
tp2520
Rp2521
ag1
(g5
S'\xa9\x95\x1d<'
p2522
tp2523
Rp2524
ag1
(g5
S'\x14\xa8\x98;'
p2525
tp2526
Rp2527
ag1
(g5
S'\xea\x12\x9f<'
p2528
tp2529
Rp2530
ag1
(g5
S'xT2;'
p2531
tp2532
Rp2533
ag1
(g5
S'`\x1f\x94;'
p2534
tp2535
Rp2536
ag1
(g5
S'+n\x8e;'
p2537
tp2538
Rp2539
ag1
(g5
S'Z\xf2s<'
p2540
tp2541
Rp2542
ag1
(g5
S'\xdac\xa3<'
p2543
tp2544
Rp2545
ag1
(g5
S'\xb2\xcbD;'
p2546
tp2547
Rp2548
ag1
(g5
S'=\xb3J<'
p2549
tp2550
Rp2551
ag1
(g5
S'\x03\x837<'
p2552
tp2553
Rp2554
ag1
(g5
S'\xa1,\xd9<'
p2555
tp2556
Rp2557
ag1
(g5
S'\x8f\xe1\x1b='
p2558
tp2559
Rp2560
ag1
(g5
S'\xd6\xbd\xeb;'
p2561
tp2562
Rp2563
ag1
(g5
S'.2><'
p2564
tp2565
Rp2566
ag1
(g5
S'\x1fq\x1a;'
p2567
tp2568
Rp2569
ag1
(g5
S'-\xffW;'
p2570
tp2571
Rp2572
ag1
(g5
S'Q\xc7\x02='
p2573
tp2574
Rp2575
ag1
(g5
S'U\x03\x1a='
p2576
tp2577
Rp2578
ag1
(g5
S'\xb4\x9d\xc9<'
p2579
tp2580
Rp2581
ag1
(g5
S'\xaf\xed\xf5<'
p2582
tp2583
Rp2584
ag1
(g5
S'\xd0:u<'
p2585
tp2586
Rp2587
ag1
(g5
S'q\xfb\xe0<'
p2588
tp2589
Rp2590
ag1
(g5
S'6\x05\x12='
p2591
tp2592
Rp2593
ag1
(g5
S'\xecj\xe3='
p2594
tp2595
Rp2596
ag1
(g5
S'M\xdf\x19<'
p2597
tp2598
Rp2599
ag1
(g5
S'\xcer\x80<'
p2600
tp2601
Rp2602
ag1
(g5
S'\xd2\x95\xa5<'
p2603
tp2604
Rp2605
ag1
(g5
S"\x1b'}<"
p2606
tp2607
Rp2608
ag1
(g5
S"W'\xe4;"
p2609
tp2610
Rp2611
ag1
(g5
S'\xc5\xd2\xa0<'
p2612
tp2613
Rp2614
ag1
(g5
S'\x96iF='
p2615
tp2616
Rp2617
ag1
(g5
S'P\x9e\xdb;'
p2618
tp2619
Rp2620
ag1
(g5
S'\x8a\xe1\xc7<'
p2621
tp2622
Rp2623
ag1
(g5
S'\xfe\xb9\xae<'
p2624
tp2625
Rp2626
ag1
(g5
S'N\x06n<'
p2627
tp2628
Rp2629
ag1
(g5
S'\x933\x93;'
p2630
tp2631
Rp2632
ag1
(g5
S'y\x92\xdf='
p2633
tp2634
Rp2635
ag1
(g5
S'\xc1O\xb8;'
p2636
tp2637
Rp2638
ag1
(g5
S'\x1fI\x12<'
p2639
tp2640
Rp2641
ag1
(g5
S'F\xec\x90;'
p2642
tp2643
Rp2644
ag1
(g5
S'\x00%:<'
p2645
tp2646
Rp2647
ag1
(g5
S'2\xcf\xa1;'
p2648
tp2649
Rp2650
ag1
(g5
S'"*\xf3<'
p2651
tp2652
Rp2653
ag1
(g5
S'\xbe0\x1e='
p2654
tp2655
Rp2656
ag1
(g5
S'|/J;'
p2657
tp2658
Rp2659
ag1
(g5
S'\xc2\xd1\xad<'
p2660
tp2661
Rp2662
ag1
(g5
S'\x13Y\xfe<'
p2663
tp2664
Rp2665
ag1
(g5
S'\xc3\x82d='
p2666
tp2667
Rp2668
ag1
(g5
S'I7\x88<'
p2669
tp2670
Rp2671
ag1
(g5
S'\x96iF='
p2672
tp2673
Rp2674
ag1
(g5
S'v\xa1\xdf<'
p2675
tp2676
Rp2677
ag1
(g5
S'\xb2V\xf8<'
p2678
tp2679
Rp2680
ag1
(g5
S'<&\x93<'
p2681
tp2682
Rp2683
ag1
(g5
S'e~\x8a;'
p2684
tp2685
Rp2686
ag1
(g5
S'\xb2Tf<'
p2687
tp2688
Rp2689
a.